

Microchip MPLAB XC8 Assembler V2.45 build 20230818022343 
                                                                                               Mon Dec  4 23:47:20 2023

Microchip MPLAB XC8 C Compiler v2.45 (Free license) build 20230818022343 Og1 
     1                           	processor	18F87J11
     2                           	fnconf	rparam,??,?,0
     3                           	pagewidth 120
     4                           	opt	flic
     5                           	psect	cinit,global,reloc=2,class=CODE,delta=1
     6                           	psect	bssCOMRAM,global,class=COMRAM,space=1,delta=1,lowdata,noexec
     7                           	psect	cstackCOMRAM,global,class=COMRAM,space=1,delta=1,lowdata,noexec
     8                           	psect	text0,global,reloc=2,class=CODE,delta=1
     9                           	psect	text1,global,reloc=2,class=CODE,delta=1
    10                           	psect	text2,global,reloc=2,class=CODE,delta=1
    11                           	psect	text3,global,reloc=2,class=CODE,delta=1
    12                           	psect	text4,global,reloc=2,class=CODE,delta=1
    13                           	psect	intcodelo,global,reloc=2,class=CODE,delta=1
    14                           	psect	intcode,global,reloc=2,class=CODE,delta=1
    15                           	psect	intcode_body,global,reloc=2,class=CODE,delta=1
    16                           	psect	smallconst,global,reloc=2,class=SMALLCONST,delta=1,noexec
    17                           	psect	intsave_regs,global,class=BIGRAM,space=1,delta=1,noexec
    18                           	psect	rparam,global,class=COMRAM,space=1,delta=1,noexec
    19                           	psect	temp,global,ovrld,common,class=COMRAM,space=1,delta=1
    20                           	psect	config,global,abs,ovrld,class=CONFIG,space=4,delta=1,noexec
    21   000000                     
    22                           ; Generated 23/03/2023 GMT
    23                           ; 
    24                           ; Copyright © 2023, Microchip Technology Inc. and its subsidiaries ("Microchip")
    25                           ; All rights reserved.
    26                           ; 
    27                           ; This software is developed by Microchip Technology Inc. and its subsidiaries ("Microch
      +                          ip").
    28                           ; 
    29                           ; Redistribution and use in source and binary forms, with or without modification, are
    30                           ; permitted provided that the following conditions are met:
    31                           ; 
    32                           ;     1. Redistributions of source code must retain the above copyright notice, this lis
      +                          t of
    33                           ;        conditions and the following disclaimer.
    34                           ; 
    35                           ;     2. Redistributions in binary form must reproduce the above copyright notice, this 
      +                          list
    36                           ;        of conditions and the following disclaimer in the documentation and/or other
    37                           ;        materials provided with the distribution. Publication is not required when
    38                           ;        this file is used in an embedded application.
    39                           ; 
    40                           ;     3. Microchip's name may not be used to endorse or promote products derived from th
      +                          is
    41                           ;        software without specific prior written permission.
    42                           ; 
    43                           ; THIS SOFTWARE IS PROVIDED BY MICROCHIP "AS IS" AND ANY EXPRESS OR IMPLIED WARRANTIES,
    44                           ; INCLUDING, BUT NOT LIMITED TO, THE IMPLIED WARRANTIES OF MERCHANTABILITY AND FITNESS F
      +                          OR
    45                           ; PURPOSE ARE DISCLAIMED.  IN NO EVENT SHALL MICROCHIP BE LIABLE FOR ANY DIRECT, INDIREC
      +                          T,
    46                           ; INCIDENTAL, SPECIAL, EXEMPLARY, OR CONSEQUENTIAL DAMAGES (INCLUDING BUT NOT LIMITED TO
    47                           ; PROCUREMENT OF SUBSTITUTE GOODS OR SERVICES; LOSS OF USE, DATA OR PROFITS; OR BUSINESS
    48                           ; INTERRUPTION) HOWSOEVER CAUSED AND ON ANY THEORY OF LIABILITY, WHETHER IN CONTRACT, ST
      +                          RICT
    49                           ; LIABILITY, OR TORT (INCLUDING NEGLIGENCE OR OTHERWISE) ARISING IN ANY WAY OUT OF THE U
      +                          SE OF
    50                           ; THIS SOFTWARE, EVEN IF ADVISED OF THE POSSIBILITY OF SUCH DAMAGE.
    51                           ; 
    52                           ; 
    53                           ; Code-generator required, PIC18F87J11 Definitions
    54                           ; 
    55                           ; SFR Addresses
    56   000000                     _TMR0L	set	4054
    57   000000                     _TMR0H	set	4055
    58   000000                     _T0CONbits	set	4053
    59   000000                     _PORTJbits	set	3976
    60   000000                     _T0CON	set	4053
    61   000000                     _INTCON2	set	4081
    62   000000                     _INTCONbits	set	4082
    63   000000                     _OSCTUNEbits	set	3995
    64   000000                     _OSCCONbits	set	4051
    65   000000                     _RCONbits	set	4048
    66                           
    67                           ; #config settings
    68                           
    69                           	psect	cinit
    70   0016EC                     __pcinit:
    71                           	callstack 0
    72   0016EC                     start_initialization:
    73                           	callstack 0
    74   0016EC                     __initialization:
    75                           	callstack 0
    76                           
    77                           ; Clear objects allocated to COMRAM (29 bytes)
    78   0016EC  EE00  F001         	lfsr	0,__pbssCOMRAM
    79   0016F0  0E1D               	movlw	29
    80   0016F2                     clear_0:
    81   0016F2  6AEE               	clrf	postinc0,c
    82   0016F4  06E8               	decf	wreg,f,c
    83   0016F6  E1FD               	bnz	clear_0
    84   0016F8                     end_of_initialization:
    85                           	callstack 0
    86   0016F8                     __end_of__initialization:
    87                           	callstack 0
    88   0016F8  9029               	bcf	int$flags,0,c	;clear compiler interrupt flag (level 1)
    89   0016FA  9229               	bcf	int$flags,1,c	;clear compiler interrupt flag (level 2)
    90   0016FC  0100               	movlb	0
    91   0016FE  EF05  F00B         	goto	_main	;jump to C main() function
    92                           
    93                           	psect	bssCOMRAM
    94   000001                     __pbssCOMRAM:
    95                           	callstack 0
    96   000001                     _casove_preruseni:
    97                           	callstack 0
    98   000001                     	ds	1
    99   000002                     _pocet:
   100                           	callstack 0
   101   000002                     	ds	2
   102   000004                     _smer:
   103                           	callstack 0
   104   000004                     	ds	2
   105   000006                     _stav_filtru_B:
   106                           	callstack 0
   107   000006                     	ds	2
   108   000008                     _stav_filtru_A:
   109                           	callstack 0
   110   000008                     	ds	2
   111   00000A                     _stav_koderu:
   112                           	callstack 0
   113   00000A                     	ds	2
   114   00000C                     _filtrB:
   115                           	callstack 0
   116   00000C                     	ds	2
   117   00000E                     _filtrA:
   118                           	callstack 0
   119   00000E                     	ds	2
   120   000010                     _B:
   121                           	callstack 0
   122   000010                     	ds	2
   123   000012                     _A:
   124                           	callstack 0
   125   000012                     	ds	2
   126   000014                     _zaaretovane_tlacitko:
   127                           	callstack 0
   128   000014                     	ds	2
   129   000016                     _stav_aretace:
   130                           	callstack 0
   131   000016                     	ds	2
   132   000018                     _stav_tlacitka:
   133                           	callstack 0
   134   000018                     	ds	2
   135   00001A                     _filtrS4:
   136                           	callstack 0
   137   00001A                     	ds	2
   138   00001C                     _vstup:
   139                           	callstack 0
   140   00001C                     	ds	2
   141                           
   142                           	psect	cstackCOMRAM
   143   00001E                     __pcstackCOMRAM:
   144                           	callstack 0
   145   00001E                     ??_low_isr:
   146                           
   147                           ; 1 bytes @ 0x0
   148   00001E                     	ds	3
   149   000021                     filtr@vstup:
   150                           	callstack 0
   151   000021                     aretace@vstup:
   152                           	callstack 0
   153   000021                     smerOtaceniPocitadloHran@A:
   154                           	callstack 0
   155                           
   156                           ; 1 bytes @ 0x3
   157   000021                     	ds	1
   158   000022                     filtr@stav:
   159                           	callstack 0
   160   000022                     aretace@stav:
   161                           	callstack 0
   162   000022                     smerOtaceniPocitadloHran@B:
   163                           	callstack 0
   164                           
   165                           ; 1 bytes @ 0x4
   166   000022                     	ds	1
   167   000023                     filtr@vystup:
   168                           	callstack 0
   169   000023                     aretace@vystup:
   170                           	callstack 0
   171   000023                     smerOtaceniPocitadloHran@stav:
   172                           	callstack 0
   173                           
   174                           ; 1 bytes @ 0x5
   175   000023                     	ds	1
   176   000024                     ??_filtr:
   177   000024                     ??_aretace:
   178   000024                     smerOtaceniPocitadloHran@smer:
   179                           	callstack 0
   180                           
   181                           ; 1 bytes @ 0x6
   182   000024                     	ds	1
   183   000025                     smerOtaceniPocitadloHran@pocet:
   184                           	callstack 0
   185                           
   186                           ; 1 bytes @ 0x7
   187   000025                     	ds	1
   188   000026                     ??_smerOtaceniPocitadloHran:
   189                           
   190                           ; 1 bytes @ 0x8
   191   000026                     	ds	2
   192   000028                     ??_main:
   193                           
   194                           ; 1 bytes @ 0xA
   195   000028                     	ds	1
   196                           
   197 ;;
   198 ;;Main: autosize = 0, tempsize = 1, incstack = 0, save=0
   199 ;;
   200 ;; *************** function _main *****************
   201 ;; Defined at:
   202 ;;		line 59 in file "source/main.c"
   203 ;; Parameters:    Size  Location     Type
   204 ;;		None
   205 ;; Auto vars:     Size  Location     Type
   206 ;;		None
   207 ;; Return value:  Size  Location     Type
   208 ;;                  1    wreg      void 
   209 ;; Registers used:
   210 ;;		wreg, fsr2l, fsr2h, status,2, status,0, cstack
   211 ;; Tracked objects:
   212 ;;		On entry : 0/0
   213 ;;		On exit  : 0/0
   214 ;;		Unchanged: 0/0
   215 ;; Data sizes:     COMRAM   BANK0   BANK1   BANK2   BANK3   BANK4   BANK5   BANK6   BANK7   BANK8   BANK9  BANK10  BANK1
      +1  BANK12  BANK13  BANK14  BANK15
   216 ;;      Params:         0       0       0       0       0       0       0       0       0       0       0       0       
      +0       0       0       0       0
   217 ;;      Locals:         0       0       0       0       0       0       0       0       0       0       0       0       
      +0       0       0       0       0
   218 ;;      Temps:          1       0       0       0       0       0       0       0       0       0       0       0       
      +0       0       0       0       0
   219 ;;      Totals:         1       0       0       0       0       0       0       0       0       0       0       0       
      +0       0       0       0       0
   220 ;;Total ram usage:        1 bytes
   221 ;; Hardware stack levels required when called: 3
   222 ;; This function calls:
   223 ;;		_aretace
   224 ;;		_filtr
   225 ;;		_preambleInitialization
   226 ;;		_smerOtaceniPocitadloHran
   227 ;; This function is called by:
   228 ;;		Startup code after reset
   229 ;; This function uses a non-reentrant model
   230 ;;
   231                           
   232                           	psect	text0
   233   00160A                     __ptext0:
   234                           	callstack 0
   235   00160A                     _main:
   236                           	callstack 28
   237   00160A                     
   238                           ;source/main.c: 62:   preambleInitialization();
   239   00160A  EC81  F00B         	call	_preambleInitialization	;wreg free
   240   00160E                     
   241                           ;source/main.c: 70:   T0CON = 0;
   242   00160E  0E00               	movlw	0
   243   001610  6ED5               	movwf	213,c	;volatile
   244   001612                     
   245                           ;source/main.c: 71:   T0CONbits.PSA = 1;
   246   001612  86D5               	bsf	213,3,c	;volatile
   247   001614                     
   248                           ;source/main.c: 72:   TMR0H = 0xD8;
   249   001614  0ED8               	movlw	216
   250   001616  6ED7               	movwf	215,c	;volatile
   251   001618                     
   252                           ;source/main.c: 73:   TMR0L = 0xEF;
   253   001618  0EEF               	movlw	239
   254   00161A  6ED6               	movwf	214,c	;volatile
   255   00161C                     
   256                           ;source/main.c: 76:   T0CONbits.TMR0ON = 1;
   257   00161C  8ED5               	bsf	213,7,c	;volatile
   258   00161E                     
   259                           ;source/main.c: 80:   INTCON2 = 0;
   260   00161E  0E00               	movlw	0
   261   001620  6EF1               	movwf	241,c	;volatile
   262   001622                     
   263                           ;source/main.c: 81:   INTCONbits.TMR0IE = 1;
   264   001622  8AF2               	bsf	242,5,c	;volatile
   265   001624                     
   266                           ;source/main.c: 83:   T0CONbits.TMR0ON = 1;
   267   001624  8ED5               	bsf	213,7,c	;volatile
   268   001626                     
   269                           ;source/main.c: 85:   INTCONbits.GIEL = 1;
   270   001626  8CF2               	bsf	242,6,c	;volatile
   271   001628                     
   272                           ;source/main.c: 86:   INTCONbits.GIEH = 1;
   273   001628  8EF2               	bsf	242,7,c	;volatile
   274   00162A                     l1266:
   275                           
   276                           ;source/main.c: 90:   {;source/main.c: 91:       if(casove_preruseni == 1){
   277   00162A  0401               	decf	_casove_preruseni^0,w,c
   278   00162C  A4D8               	btfss	status,2,c
   279   00162E  EF1B  F00B         	goto	u721
   280   001632  EF1D  F00B         	goto	u720
   281   001636                     u721:
   282   001636  EF15  F00B         	goto	l1266
   283   00163A                     u720:
   284   00163A                     
   285                           ;source/main.c: 92:           casove_preruseni = 0;
   286   00163A  0E00               	movlw	0
   287   00163C  6E01               	movwf	_casove_preruseni^0,c
   288                           
   289                           ;source/main.c: 93:           vstup = PORTJbits.RJ7;
   290   00163E  BE88               	btfsc	136,7,c	;volatile
   291   001640  EF24  F00B         	goto	u731
   292   001644  EF28  F00B         	goto	u730
   293   001648                     u731:
   294   001648  6A28               	clrf	??_main^0,c
   295   00164A  2A28               	incf	??_main^0,f,c
   296   00164C  EF29  F00B         	goto	u738
   297   001650                     u730:
   298   001650  6A28               	clrf	??_main^0,c
   299   001652                     u738:
   300   001652  5028               	movf	??_main^0,w,c
   301   001654  6E1C               	movwf	_vstup^0,c
   302   001656  6A1D               	clrf	(_vstup+1)^0,c
   303   001658                     
   304                           ;source/main.c: 94:           filtr(&vstup, &stav_tlacitka, &filtrS4);
   305   001658  0E1C               	movlw	low _vstup
   306   00165A  6E21               	movwf	filtr@vstup^0,c
   307   00165C  0E18               	movlw	low _stav_tlacitka
   308   00165E  6E22               	movwf	filtr@stav^0,c
   309   001660  0E1A               	movlw	low _filtrS4
   310   001662  6E23               	movwf	filtr@vystup^0,c
   311   001664  ECBF  F009         	call	_filtr	;wreg free
   312   001668                     
   313                           ;source/main.c: 95:           aretace(&filtrS4, &stav_aretace, &zaaretovane_tlacitko);
   314   001668  0E1A               	movlw	low _filtrS4
   315   00166A  6E21               	movwf	aretace@vstup^0,c
   316   00166C  0E16               	movlw	low _stav_aretace
   317   00166E  6E22               	movwf	aretace@stav^0,c
   318   001670  0E14               	movlw	low _zaaretovane_tlacitko
   319   001672  6E23               	movwf	aretace@vystup^0,c
   320   001674  EC83  F00A         	call	_aretace	;wreg free
   321                           
   322                           ;source/main.c: 97:           A = PORTJbits.RJ0;
   323   001678  B088               	btfsc	136,0,c	;volatile
   324   00167A  EF41  F00B         	goto	u741
   325   00167E  EF45  F00B         	goto	u740
   326   001682                     u741:
   327   001682  6A28               	clrf	??_main^0,c
   328   001684  2A28               	incf	??_main^0,f,c
   329   001686  EF46  F00B         	goto	u748
   330   00168A                     u740:
   331   00168A  6A28               	clrf	??_main^0,c
   332   00168C                     u748:
   333   00168C  5028               	movf	??_main^0,w,c
   334   00168E  6E12               	movwf	_A^0,c
   335   001690  6A13               	clrf	(_A+1)^0,c
   336   001692                     
   337                           ;source/main.c: 98:           filtr(&A, &stav_filtru_A, &filtrA);
   338   001692  0E12               	movlw	low _A
   339   001694  6E21               	movwf	filtr@vstup^0,c
   340   001696  0E08               	movlw	low _stav_filtru_A
   341   001698  6E22               	movwf	filtr@stav^0,c
   342   00169A  0E0E               	movlw	low _filtrA
   343   00169C  6E23               	movwf	filtr@vystup^0,c
   344   00169E  ECBF  F009         	call	_filtr	;wreg free
   345   0016A2                     
   346                           ;source/main.c: 99:           B = PORTJbits.RJ1;
   347   0016A2  B288               	btfsc	136,1,c	;volatile
   348   0016A4  EF56  F00B         	goto	u751
   349   0016A8  EF5A  F00B         	goto	u750
   350   0016AC                     u751:
   351   0016AC  6A28               	clrf	??_main^0,c
   352   0016AE  2A28               	incf	??_main^0,f,c
   353   0016B0  EF5B  F00B         	goto	u758
   354   0016B4                     u750:
   355   0016B4  6A28               	clrf	??_main^0,c
   356   0016B6                     u758:
   357   0016B6  5028               	movf	??_main^0,w,c
   358   0016B8  6E10               	movwf	_B^0,c
   359   0016BA  6A11               	clrf	(_B+1)^0,c
   360                           
   361                           ;source/main.c: 100:           filtr(&B, &stav_filtru_B, &filtrB);
   362   0016BC  0E10               	movlw	low _B
   363   0016BE  6E21               	movwf	filtr@vstup^0,c
   364   0016C0  0E06               	movlw	low _stav_filtru_B
   365   0016C2  6E22               	movwf	filtr@stav^0,c
   366   0016C4  0E0C               	movlw	low _filtrB
   367   0016C6  6E23               	movwf	filtr@vystup^0,c
   368   0016C8  ECBF  F009         	call	_filtr	;wreg free
   369                           
   370                           ;source/main.c: 101:           smerOtaceniPocitadloHran(&A, &B, &stav_koderu, &smer, &po
      +                          cet);
   371   0016CC  0E12               	movlw	low _A
   372   0016CE  6E21               	movwf	smerOtaceniPocitadloHran@A^0,c
   373   0016D0  0E10               	movlw	low _B
   374   0016D2  6E22               	movwf	smerOtaceniPocitadloHran@B^0,c
   375   0016D4  0E0A               	movlw	low _stav_koderu
   376   0016D6  6E23               	movwf	smerOtaceniPocitadloHran@stav^0,c
   377   0016D8  0E04               	movlw	low _smer
   378   0016DA  6E24               	movwf	smerOtaceniPocitadloHran@smer^0,c
   379   0016DC  0E02               	movlw	low _pocet
   380   0016DE  6E25               	movwf	smerOtaceniPocitadloHran@pocet^0,c
   381   0016E0  EC01  F008         	call	_smerOtaceniPocitadloHran	;wreg free
   382   0016E4  EF15  F00B         	goto	l1266
   383   0016E8  EF29  F000         	goto	start
   384   0016EC                     __end_of_main:
   385                           	callstack 0
   386                           
   387 ;; *************** function _smerOtaceniPocitadloHran *****************
   388 ;; Defined at:
   389 ;;		line 14 in file "source/smerOtaceniPocitadloHran.c"
   390 ;; Parameters:    Size  Location     Type
   391 ;;  A               1    3[COMRAM] PTR int 
   392 ;;		 -> A(2), 
   393 ;;  B               1    4[COMRAM] PTR int 
   394 ;;		 -> B(2), 
   395 ;;  stav            1    5[COMRAM] PTR int 
   396 ;;		 -> stav_koderu(2), 
   397 ;;  smer            1    6[COMRAM] PTR int 
   398 ;;		 -> smer(2), 
   399 ;;  pocet           1    7[COMRAM] PTR int 
   400 ;;		 -> pocet(2), 
   401 ;; Auto vars:     Size  Location     Type
   402 ;;		None
   403 ;; Return value:  Size  Location     Type
   404 ;;                  1    wreg      void 
   405 ;; Registers used:
   406 ;;		wreg, fsr2l, fsr2h, status,2, status,0
   407 ;; Tracked objects:
   408 ;;		On entry : 0/0
   409 ;;		On exit  : 0/0
   410 ;;		Unchanged: 0/0
   411 ;; Data sizes:     COMRAM   BANK0   BANK1   BANK2   BANK3   BANK4   BANK5   BANK6   BANK7   BANK8   BANK9  BANK10  BANK1
      +1  BANK12  BANK13  BANK14  BANK15
   412 ;;      Params:         5       0       0       0       0       0       0       0       0       0       0       0       
      +0       0       0       0       0
   413 ;;      Locals:         0       0       0       0       0       0       0       0       0       0       0       0       
      +0       0       0       0       0
   414 ;;      Temps:          2       0       0       0       0       0       0       0       0       0       0       0       
      +0       0       0       0       0
   415 ;;      Totals:         7       0       0       0       0       0       0       0       0       0       0       0       
      +0       0       0       0       0
   416 ;;Total ram usage:        7 bytes
   417 ;; Hardware stack levels used: 1
   418 ;; Hardware stack levels required when called: 2
   419 ;; This function calls:
   420 ;;		Nothing
   421 ;; This function is called by:
   422 ;;		_main
   423 ;; This function uses a non-reentrant model
   424 ;;
   425                           
   426                           	psect	text1
   427   001002                     __ptext1:
   428                           	callstack 0
   429   001002                     _smerOtaceniPocitadloHran:
   430                           	callstack 28
   431   001002                     
   432                           ;source/smerOtaceniPocitadloHran.c: 15:     switch (*stav){
   433   001002  EF9D  F009         	goto	l1238
   434   001006                     l1140:
   435                           
   436                           ;source/smerOtaceniPocitadloHran.c: 17:             if (*A == 1 && *B==0){
   437   001006  5021               	movf	smerOtaceniPocitadloHran@A^0,w,c
   438   001008  6ED9               	movwf	fsr2l,c
   439   00100A  6ADA               	clrf	fsr2h,c
   440   00100C  04DE               	decf	postinc2,w,c
   441   00100E  10DE               	iorwf	postinc2,w,c
   442   001010  A4D8               	btfss	status,2,c
   443   001012  EF0D  F008         	goto	u481
   444   001016  EF0F  F008         	goto	u480
   445   00101A                     u481:
   446   00101A  EF39  F008         	goto	l1152
   447   00101E                     u480:
   448   00101E  5022               	movf	smerOtaceniPocitadloHran@B^0,w,c
   449   001020  6ED9               	movwf	fsr2l,c
   450   001022  6ADA               	clrf	fsr2h,c
   451   001024  50DE               	movf	postinc2,w,c
   452   001026  10DE               	iorwf	postinc2,w,c
   453   001028  A4D8               	btfss	status,2,c
   454   00102A  EF19  F008         	goto	u491
   455   00102E  EF1B  F008         	goto	u490
   456   001032                     u491:
   457   001032  EF39  F008         	goto	l1152
   458   001036                     u490:
   459   001036                     
   460                           ;source/smerOtaceniPocitadloHran.c: 18:                 if (*pocet == 255){
   461   001036  5025               	movf	smerOtaceniPocitadloHran@pocet^0,w,c
   462   001038  6ED9               	movwf	fsr2l,c
   463   00103A  6ADA               	clrf	fsr2h,c
   464   00103C  28DE               	incf	postinc2,w,c
   465   00103E  10DE               	iorwf	postinc2,w,c
   466   001040  A4D8               	btfss	status,2,c
   467   001042  EF25  F008         	goto	u501
   468   001046  EF27  F008         	goto	u500
   469   00104A                     u501:
   470   00104A  EF2E  F008         	goto	l1148
   471   00104E                     u500:
   472   00104E                     
   473                           ;source/smerOtaceniPocitadloHran.c: 19:                     *pocet=0;
   474   00104E  5025               	movf	smerOtaceniPocitadloHran@pocet^0,w,c
   475   001050  6ED9               	movwf	fsr2l,c
   476   001052  6ADA               	clrf	fsr2h,c
   477   001054  6ADE               	clrf	postinc2,c
   478   001056  6ADD               	clrf	postdec2,c
   479                           
   480                           ;source/smerOtaceniPocitadloHran.c: 20:                 }
   481   001058  EF30  F008         	goto	l1150
   482   00105C                     l1148:
   483                           
   484                           ;source/smerOtaceniPocitadloHran.c: 22:                     *pocet++;
   485   00105C  0E02               	movlw	2
   486   00105E  2625               	addwf	smerOtaceniPocitadloHran@pocet^0,f,c
   487   001060                     l1150:
   488                           
   489                           ;source/smerOtaceniPocitadloHran.c: 24:                 *stav = ks1;
   490   001060  5023               	movf	smerOtaceniPocitadloHran@stav^0,w,c
   491   001062  6ED9               	movwf	fsr2l,c
   492   001064  6ADA               	clrf	fsr2h,c
   493   001066  0E01               	movlw	1
   494   001068  6EDE               	movwf	postinc2,c
   495   00106A  0E00               	movlw	0
   496   00106C  6EDD               	movwf	postdec2,c
   497                           
   498                           ;source/smerOtaceniPocitadloHran.c: 25:             }
   499   00106E  EFBE  F009         	goto	l162
   500   001072                     l1152:
   501   001072  5021               	movf	smerOtaceniPocitadloHran@A^0,w,c
   502   001074  6ED9               	movwf	fsr2l,c
   503   001076  6ADA               	clrf	fsr2h,c
   504   001078  50DE               	movf	postinc2,w,c
   505   00107A  10DE               	iorwf	postinc2,w,c
   506   00107C  A4D8               	btfss	status,2,c
   507   00107E  EF43  F008         	goto	u511
   508   001082  EF45  F008         	goto	u510
   509   001086                     u511:
   510   001086  EFBE  F009         	goto	l162
   511   00108A                     u510:
   512   00108A  5022               	movf	smerOtaceniPocitadloHran@B^0,w,c
   513   00108C  6ED9               	movwf	fsr2l,c
   514   00108E  6ADA               	clrf	fsr2h,c
   515   001090  04DE               	decf	postinc2,w,c
   516   001092  10DE               	iorwf	postinc2,w,c
   517   001094  A4D8               	btfss	status,2,c
   518   001096  EF4F  F008         	goto	u521
   519   00109A  EF51  F008         	goto	u520
   520   00109E                     u521:
   521   00109E  EFBE  F009         	goto	l162
   522   0010A2                     u520:
   523   0010A2                     
   524                           ;source/smerOtaceniPocitadloHran.c: 27:                 if (*pocet == 0){
   525   0010A2  5025               	movf	smerOtaceniPocitadloHran@pocet^0,w,c
   526   0010A4  6ED9               	movwf	fsr2l,c
   527   0010A6  6ADA               	clrf	fsr2h,c
   528   0010A8  50DE               	movf	postinc2,w,c
   529   0010AA  10DE               	iorwf	postinc2,w,c
   530   0010AC  A4D8               	btfss	status,2,c
   531   0010AE  EF5B  F008         	goto	u531
   532   0010B2  EF5D  F008         	goto	u530
   533   0010B6                     u531:
   534   0010B6  EF66  F008         	goto	l1160
   535   0010BA                     u530:
   536   0010BA                     
   537                           ;source/smerOtaceniPocitadloHran.c: 28:                     *pocet=255;
   538   0010BA  5025               	movf	smerOtaceniPocitadloHran@pocet^0,w,c
   539   0010BC  6ED9               	movwf	fsr2l,c
   540   0010BE  6ADA               	clrf	fsr2h,c
   541   0010C0  0EFF               	movlw	255
   542   0010C2  6EDE               	movwf	postinc2,c
   543   0010C4  0E00               	movlw	0
   544   0010C6  6EDD               	movwf	postdec2,c
   545                           
   546                           ;source/smerOtaceniPocitadloHran.c: 29:                 }
   547   0010C8  EF68  F008         	goto	l1162
   548   0010CC                     l1160:
   549                           
   550                           ;source/smerOtaceniPocitadloHran.c: 31:                     *pocet--;
   551   0010CC  0E02               	movlw	2
   552   0010CE  5E25               	subwf	smerOtaceniPocitadloHran@pocet^0,f,c
   553   0010D0                     l1162:
   554                           
   555                           ;source/smerOtaceniPocitadloHran.c: 33:                 *stav = ks3;
   556   0010D0  5023               	movf	smerOtaceniPocitadloHran@stav^0,w,c
   557   0010D2  6ED9               	movwf	fsr2l,c
   558   0010D4  6ADA               	clrf	fsr2h,c
   559   0010D6  0E03               	movlw	3
   560   0010D8  6EDE               	movwf	postinc2,c
   561   0010DA  0E00               	movlw	0
   562   0010DC  6EDD               	movwf	postdec2,c
   563   0010DE  EFBE  F009         	goto	l162
   564   0010E2                     l1164:
   565                           
   566                           ;source/smerOtaceniPocitadloHran.c: 39:             if (*A == 1 && *B==1){
   567   0010E2  5021               	movf	smerOtaceniPocitadloHran@A^0,w,c
   568   0010E4  6ED9               	movwf	fsr2l,c
   569   0010E6  6ADA               	clrf	fsr2h,c
   570   0010E8  04DE               	decf	postinc2,w,c
   571   0010EA  10DE               	iorwf	postinc2,w,c
   572   0010EC  A4D8               	btfss	status,2,c
   573   0010EE  EF7B  F008         	goto	u541
   574   0010F2  EF7D  F008         	goto	u540
   575   0010F6                     u541:
   576   0010F6  EFA7  F008         	goto	l1176
   577   0010FA                     u540:
   578   0010FA  5022               	movf	smerOtaceniPocitadloHran@B^0,w,c
   579   0010FC  6ED9               	movwf	fsr2l,c
   580   0010FE  6ADA               	clrf	fsr2h,c
   581   001100  04DE               	decf	postinc2,w,c
   582   001102  10DE               	iorwf	postinc2,w,c
   583   001104  A4D8               	btfss	status,2,c
   584   001106  EF87  F008         	goto	u551
   585   00110A  EF89  F008         	goto	u550
   586   00110E                     u551:
   587   00110E  EFA7  F008         	goto	l1176
   588   001112                     u550:
   589   001112                     
   590                           ;source/smerOtaceniPocitadloHran.c: 40:                 if (*pocet == 255){
   591   001112  5025               	movf	smerOtaceniPocitadloHran@pocet^0,w,c
   592   001114  6ED9               	movwf	fsr2l,c
   593   001116  6ADA               	clrf	fsr2h,c
   594   001118  28DE               	incf	postinc2,w,c
   595   00111A  10DE               	iorwf	postinc2,w,c
   596   00111C  A4D8               	btfss	status,2,c
   597   00111E  EF93  F008         	goto	u561
   598   001122  EF95  F008         	goto	u560
   599   001126                     u561:
   600   001126  EF9C  F008         	goto	l1172
   601   00112A                     u560:
   602   00112A                     
   603                           ;source/smerOtaceniPocitadloHran.c: 41:                     *pocet=0;
   604   00112A  5025               	movf	smerOtaceniPocitadloHran@pocet^0,w,c
   605   00112C  6ED9               	movwf	fsr2l,c
   606   00112E  6ADA               	clrf	fsr2h,c
   607   001130  6ADE               	clrf	postinc2,c
   608   001132  6ADD               	clrf	postdec2,c
   609                           
   610                           ;source/smerOtaceniPocitadloHran.c: 42:                 }
   611   001134  EF9E  F008         	goto	l1174
   612   001138                     l1172:
   613                           
   614                           ;source/smerOtaceniPocitadloHran.c: 44:                     *pocet++;
   615   001138  0E02               	movlw	2
   616   00113A  2625               	addwf	smerOtaceniPocitadloHran@pocet^0,f,c
   617   00113C                     l1174:
   618                           
   619                           ;source/smerOtaceniPocitadloHran.c: 46:                 *stav = ks2;
   620   00113C  5023               	movf	smerOtaceniPocitadloHran@stav^0,w,c
   621   00113E  6ED9               	movwf	fsr2l,c
   622   001140  6ADA               	clrf	fsr2h,c
   623   001142  0E02               	movlw	2
   624   001144  6EDE               	movwf	postinc2,c
   625   001146  0E00               	movlw	0
   626   001148  6EDD               	movwf	postdec2,c
   627                           
   628                           ;source/smerOtaceniPocitadloHran.c: 47:             }
   629   00114A  EFBE  F009         	goto	l162
   630   00114E                     l1176:
   631   00114E  5021               	movf	smerOtaceniPocitadloHran@A^0,w,c
   632   001150  6ED9               	movwf	fsr2l,c
   633   001152  6ADA               	clrf	fsr2h,c
   634   001154  50DE               	movf	postinc2,w,c
   635   001156  10DE               	iorwf	postinc2,w,c
   636   001158  A4D8               	btfss	status,2,c
   637   00115A  EFB1  F008         	goto	u571
   638   00115E  EFB3  F008         	goto	u570
   639   001162                     u571:
   640   001162  EFBE  F009         	goto	l162
   641   001166                     u570:
   642   001166  5022               	movf	smerOtaceniPocitadloHran@B^0,w,c
   643   001168  6ED9               	movwf	fsr2l,c
   644   00116A  6ADA               	clrf	fsr2h,c
   645   00116C  50DE               	movf	postinc2,w,c
   646   00116E  10DE               	iorwf	postinc2,w,c
   647   001170  A4D8               	btfss	status,2,c
   648   001172  EFBD  F008         	goto	u581
   649   001176  EFBF  F008         	goto	u580
   650   00117A                     u581:
   651   00117A  EFBE  F009         	goto	l162
   652   00117E                     u580:
   653   00117E                     
   654                           ;source/smerOtaceniPocitadloHran.c: 49:                 if (*pocet == 0){
   655   00117E  5025               	movf	smerOtaceniPocitadloHran@pocet^0,w,c
   656   001180  6ED9               	movwf	fsr2l,c
   657   001182  6ADA               	clrf	fsr2h,c
   658   001184  50DE               	movf	postinc2,w,c
   659   001186  10DE               	iorwf	postinc2,w,c
   660   001188  A4D8               	btfss	status,2,c
   661   00118A  EFC9  F008         	goto	u591
   662   00118E  EFCB  F008         	goto	u590
   663   001192                     u591:
   664   001192  EFD4  F008         	goto	l1184
   665   001196                     u590:
   666   001196                     
   667                           ;source/smerOtaceniPocitadloHran.c: 50:                     *pocet=255;
   668   001196  5025               	movf	smerOtaceniPocitadloHran@pocet^0,w,c
   669   001198  6ED9               	movwf	fsr2l,c
   670   00119A  6ADA               	clrf	fsr2h,c
   671   00119C  0EFF               	movlw	255
   672   00119E  6EDE               	movwf	postinc2,c
   673   0011A0  0E00               	movlw	0
   674   0011A2  6EDD               	movwf	postdec2,c
   675                           
   676                           ;source/smerOtaceniPocitadloHran.c: 51:                 }
   677   0011A4  EFD6  F008         	goto	l1186
   678   0011A8                     l1184:
   679                           
   680                           ;source/smerOtaceniPocitadloHran.c: 53:                     *pocet--;
   681   0011A8  0E02               	movlw	2
   682   0011AA  5E25               	subwf	smerOtaceniPocitadloHran@pocet^0,f,c
   683   0011AC                     l1186:
   684                           
   685                           ;source/smerOtaceniPocitadloHran.c: 55:                 *stav = ks0;
   686   0011AC  5023               	movf	smerOtaceniPocitadloHran@stav^0,w,c
   687   0011AE  6ED9               	movwf	fsr2l,c
   688   0011B0  6ADA               	clrf	fsr2h,c
   689   0011B2  6ADE               	clrf	postinc2,c
   690   0011B4  6ADD               	clrf	postdec2,c
   691   0011B6  EFBE  F009         	goto	l162
   692   0011BA                     l1188:
   693                           
   694                           ;source/smerOtaceniPocitadloHran.c: 61:             if (*A == 0 && *B==1){
   695   0011BA  5021               	movf	smerOtaceniPocitadloHran@A^0,w,c
   696   0011BC  6ED9               	movwf	fsr2l,c
   697   0011BE  6ADA               	clrf	fsr2h,c
   698   0011C0  50DE               	movf	postinc2,w,c
   699   0011C2  10DE               	iorwf	postinc2,w,c
   700   0011C4  A4D8               	btfss	status,2,c
   701   0011C6  EFE7  F008         	goto	u601
   702   0011CA  EFE9  F008         	goto	u600
   703   0011CE                     u601:
   704   0011CE  EF0C  F009         	goto	l1200
   705   0011D2                     u600:
   706   0011D2  5022               	movf	smerOtaceniPocitadloHran@B^0,w,c
   707   0011D4  6ED9               	movwf	fsr2l,c
   708   0011D6  6ADA               	clrf	fsr2h,c
   709   0011D8  04DE               	decf	postinc2,w,c
   710   0011DA  10DE               	iorwf	postinc2,w,c
   711   0011DC  A4D8               	btfss	status,2,c
   712   0011DE  EFF3  F008         	goto	u611
   713   0011E2  EFF5  F008         	goto	u610
   714   0011E6                     u611:
   715   0011E6  EF0C  F009         	goto	l1200
   716   0011EA                     u610:
   717   0011EA                     
   718                           ;source/smerOtaceniPocitadloHran.c: 62:                 if (*pocet == 255){
   719   0011EA  5025               	movf	smerOtaceniPocitadloHran@pocet^0,w,c
   720   0011EC  6ED9               	movwf	fsr2l,c
   721   0011EE  6ADA               	clrf	fsr2h,c
   722   0011F0  28DE               	incf	postinc2,w,c
   723   0011F2  10DE               	iorwf	postinc2,w,c
   724   0011F4  A4D8               	btfss	status,2,c
   725   0011F6  EFFF  F008         	goto	u621
   726   0011FA  EF01  F009         	goto	u620
   727   0011FE                     u621:
   728   0011FE  EF08  F009         	goto	l1196
   729   001202                     u620:
   730   001202                     
   731                           ;source/smerOtaceniPocitadloHran.c: 63:                     *pocet=0;
   732   001202  5025               	movf	smerOtaceniPocitadloHran@pocet^0,w,c
   733   001204  6ED9               	movwf	fsr2l,c
   734   001206  6ADA               	clrf	fsr2h,c
   735   001208  6ADE               	clrf	postinc2,c
   736   00120A  6ADD               	clrf	postdec2,c
   737                           
   738                           ;source/smerOtaceniPocitadloHran.c: 64:                 }
   739   00120C  EF68  F008         	goto	l1162
   740   001210                     l1196:
   741                           
   742                           ;source/smerOtaceniPocitadloHran.c: 66:                     *pocet++;
   743   001210  0E02               	movlw	2
   744   001212  2625               	addwf	smerOtaceniPocitadloHran@pocet^0,f,c
   745   001214  EF68  F008         	goto	l1162
   746   001218                     l1200:
   747   001218  5021               	movf	smerOtaceniPocitadloHran@A^0,w,c
   748   00121A  6ED9               	movwf	fsr2l,c
   749   00121C  6ADA               	clrf	fsr2h,c
   750   00121E  04DE               	decf	postinc2,w,c
   751   001220  10DE               	iorwf	postinc2,w,c
   752   001222  A4D8               	btfss	status,2,c
   753   001224  EF16  F009         	goto	u631
   754   001228  EF18  F009         	goto	u630
   755   00122C                     u631:
   756   00122C  EFBE  F009         	goto	l162
   757   001230                     u630:
   758   001230  5022               	movf	smerOtaceniPocitadloHran@B^0,w,c
   759   001232  6ED9               	movwf	fsr2l,c
   760   001234  6ADA               	clrf	fsr2h,c
   761   001236  50DE               	movf	postinc2,w,c
   762   001238  10DE               	iorwf	postinc2,w,c
   763   00123A  A4D8               	btfss	status,2,c
   764   00123C  EF22  F009         	goto	u641
   765   001240  EF24  F009         	goto	u640
   766   001244                     u641:
   767   001244  EFBE  F009         	goto	l162
   768   001248                     u640:
   769   001248                     
   770                           ;source/smerOtaceniPocitadloHran.c: 71:                 if (*pocet == 0){
   771   001248  5025               	movf	smerOtaceniPocitadloHran@pocet^0,w,c
   772   00124A  6ED9               	movwf	fsr2l,c
   773   00124C  6ADA               	clrf	fsr2h,c
   774   00124E  50DE               	movf	postinc2,w,c
   775   001250  10DE               	iorwf	postinc2,w,c
   776   001252  A4D8               	btfss	status,2,c
   777   001254  EF2E  F009         	goto	u651
   778   001258  EF30  F009         	goto	u650
   779   00125C                     u651:
   780   00125C  EF39  F009         	goto	l1208
   781   001260                     u650:
   782   001260                     
   783                           ;source/smerOtaceniPocitadloHran.c: 72:                     *pocet=255;
   784   001260  5025               	movf	smerOtaceniPocitadloHran@pocet^0,w,c
   785   001262  6ED9               	movwf	fsr2l,c
   786   001264  6ADA               	clrf	fsr2h,c
   787   001266  0EFF               	movlw	255
   788   001268  6EDE               	movwf	postinc2,c
   789   00126A  0E00               	movlw	0
   790   00126C  6EDD               	movwf	postdec2,c
   791                           
   792                           ;source/smerOtaceniPocitadloHran.c: 73:                 }
   793   00126E  EF30  F008         	goto	l1150
   794   001272                     l1208:
   795                           
   796                           ;source/smerOtaceniPocitadloHran.c: 75:                     *pocet--;
   797   001272  0E02               	movlw	2
   798   001274  5E25               	subwf	smerOtaceniPocitadloHran@pocet^0,f,c
   799   001276  EF30  F008         	goto	l1150
   800   00127A                     l1212:
   801                           
   802                           ;source/smerOtaceniPocitadloHran.c: 83:             if (*A == 0 && *B==0){
   803   00127A  5021               	movf	smerOtaceniPocitadloHran@A^0,w,c
   804   00127C  6ED9               	movwf	fsr2l,c
   805   00127E  6ADA               	clrf	fsr2h,c
   806   001280  50DE               	movf	postinc2,w,c
   807   001282  10DE               	iorwf	postinc2,w,c
   808   001284  A4D8               	btfss	status,2,c
   809   001286  EF47  F009         	goto	u661
   810   00128A  EF49  F009         	goto	u660
   811   00128E                     u661:
   812   00128E  EF6C  F009         	goto	l1224
   813   001292                     u660:
   814   001292  5022               	movf	smerOtaceniPocitadloHran@B^0,w,c
   815   001294  6ED9               	movwf	fsr2l,c
   816   001296  6ADA               	clrf	fsr2h,c
   817   001298  50DE               	movf	postinc2,w,c
   818   00129A  10DE               	iorwf	postinc2,w,c
   819   00129C  A4D8               	btfss	status,2,c
   820   00129E  EF53  F009         	goto	u671
   821   0012A2  EF55  F009         	goto	u670
   822   0012A6                     u671:
   823   0012A6  EF6C  F009         	goto	l1224
   824   0012AA                     u670:
   825   0012AA                     
   826                           ;source/smerOtaceniPocitadloHran.c: 84:                 if (*pocet == 255){
   827   0012AA  5025               	movf	smerOtaceniPocitadloHran@pocet^0,w,c
   828   0012AC  6ED9               	movwf	fsr2l,c
   829   0012AE  6ADA               	clrf	fsr2h,c
   830   0012B0  28DE               	incf	postinc2,w,c
   831   0012B2  10DE               	iorwf	postinc2,w,c
   832   0012B4  A4D8               	btfss	status,2,c
   833   0012B6  EF5F  F009         	goto	u681
   834   0012BA  EF61  F009         	goto	u680
   835   0012BE                     u681:
   836   0012BE  EF68  F009         	goto	l1220
   837   0012C2                     u680:
   838   0012C2                     
   839                           ;source/smerOtaceniPocitadloHran.c: 85:                     *pocet=0;
   840   0012C2  5025               	movf	smerOtaceniPocitadloHran@pocet^0,w,c
   841   0012C4  6ED9               	movwf	fsr2l,c
   842   0012C6  6ADA               	clrf	fsr2h,c
   843   0012C8  6ADE               	clrf	postinc2,c
   844   0012CA  6ADD               	clrf	postdec2,c
   845                           
   846                           ;source/smerOtaceniPocitadloHran.c: 86:                 }
   847   0012CC  EFD6  F008         	goto	l1186
   848   0012D0                     l1220:
   849                           
   850                           ;source/smerOtaceniPocitadloHran.c: 88:                     *pocet++;
   851   0012D0  0E02               	movlw	2
   852   0012D2  2625               	addwf	smerOtaceniPocitadloHran@pocet^0,f,c
   853   0012D4  EFD6  F008         	goto	l1186
   854   0012D8                     l1224:
   855   0012D8  5021               	movf	smerOtaceniPocitadloHran@A^0,w,c
   856   0012DA  6ED9               	movwf	fsr2l,c
   857   0012DC  6ADA               	clrf	fsr2h,c
   858   0012DE  04DE               	decf	postinc2,w,c
   859   0012E0  10DE               	iorwf	postinc2,w,c
   860   0012E2  A4D8               	btfss	status,2,c
   861   0012E4  EF76  F009         	goto	u691
   862   0012E8  EF78  F009         	goto	u690
   863   0012EC                     u691:
   864   0012EC  EFBE  F009         	goto	l162
   865   0012F0                     u690:
   866   0012F0  5022               	movf	smerOtaceniPocitadloHran@B^0,w,c
   867   0012F2  6ED9               	movwf	fsr2l,c
   868   0012F4  6ADA               	clrf	fsr2h,c
   869   0012F6  04DE               	decf	postinc2,w,c
   870   0012F8  10DE               	iorwf	postinc2,w,c
   871   0012FA  A4D8               	btfss	status,2,c
   872   0012FC  EF82  F009         	goto	u701
   873   001300  EF84  F009         	goto	u700
   874   001304                     u701:
   875   001304  EFBE  F009         	goto	l162
   876   001308                     u700:
   877   001308                     
   878                           ;source/smerOtaceniPocitadloHran.c: 93:                 if (*pocet == 0){
   879   001308  5025               	movf	smerOtaceniPocitadloHran@pocet^0,w,c
   880   00130A  6ED9               	movwf	fsr2l,c
   881   00130C  6ADA               	clrf	fsr2h,c
   882   00130E  50DE               	movf	postinc2,w,c
   883   001310  10DE               	iorwf	postinc2,w,c
   884   001312  A4D8               	btfss	status,2,c
   885   001314  EF8E  F009         	goto	u711
   886   001318  EF90  F009         	goto	u710
   887   00131C                     u711:
   888   00131C  EF99  F009         	goto	l1232
   889   001320                     u710:
   890   001320                     
   891                           ;source/smerOtaceniPocitadloHran.c: 94:                     *pocet=255;
   892   001320  5025               	movf	smerOtaceniPocitadloHran@pocet^0,w,c
   893   001322  6ED9               	movwf	fsr2l,c
   894   001324  6ADA               	clrf	fsr2h,c
   895   001326  0EFF               	movlw	255
   896   001328  6EDE               	movwf	postinc2,c
   897   00132A  0E00               	movlw	0
   898   00132C  6EDD               	movwf	postdec2,c
   899                           
   900                           ;source/smerOtaceniPocitadloHran.c: 95:                 }
   901   00132E  EF9E  F008         	goto	l1174
   902   001332                     l1232:
   903                           
   904                           ;source/smerOtaceniPocitadloHran.c: 97:                     *pocet--;
   905   001332  0E02               	movlw	2
   906   001334  5E25               	subwf	smerOtaceniPocitadloHran@pocet^0,f,c
   907   001336  EF9E  F008         	goto	l1174
   908   00133A                     l1238:
   909   00133A  5023               	movf	smerOtaceniPocitadloHran@stav^0,w,c
   910   00133C  6ED9               	movwf	fsr2l,c
   911   00133E  6ADA               	clrf	fsr2h,c
   912   001340  CFDE F026          	movff	postinc2,??_smerOtaceniPocitadloHran
   913   001344  CFDD F027          	movff	postdec2,??_smerOtaceniPocitadloHran+1
   914                           
   915                           ; Switch on 2 bytes has been partitioned into a top level switch of size 1, and 1 sub-sw
      +                          itches
   916                           ; Switch size 1, requested type "simple"
   917                           ; Number of cases is 1, Range of values is 0 to 0
   918                           ; switch strategies available:
   919                           ; Name         Instructions Cycles
   920                           ; simple_byte            4     3 (average)
   921                           ;	Chosen strategy is simple_byte
   922   001348  5027               	movf	(??_smerOtaceniPocitadloHran+1)^0,w,c
   923   00134A  0A00               	xorlw	0	; case 0
   924   00134C  B4D8               	btfsc	status,2,c
   925   00134E  EFAB  F009         	goto	l1290
   926   001352  EFBE  F009         	goto	l162
   927   001356                     l1290:
   928                           
   929                           ; Switch size 1, requested type "simple"
   930                           ; Number of cases is 4, Range of values is 0 to 3
   931                           ; switch strategies available:
   932                           ; Name         Instructions Cycles
   933                           ; simple_byte           13     7 (average)
   934                           ;	Chosen strategy is simple_byte
   935   001356  5026               	movf	??_smerOtaceniPocitadloHran^0,w,c
   936   001358  0A00               	xorlw	0	; case 0
   937   00135A  B4D8               	btfsc	status,2,c
   938   00135C  EF03  F008         	goto	l1140
   939   001360  0A01               	xorlw	1	; case 1
   940   001362  B4D8               	btfsc	status,2,c
   941   001364  EF71  F008         	goto	l1164
   942   001368  0A03               	xorlw	3	; case 2
   943   00136A  B4D8               	btfsc	status,2,c
   944   00136C  EFDD  F008         	goto	l1188
   945   001370  0A01               	xorlw	1	; case 3
   946   001372  B4D8               	btfsc	status,2,c
   947   001374  EF3D  F009         	goto	l1212
   948   001378  EFBE  F009         	goto	l162
   949   00137C                     l162:
   950   00137C  0012               	return		;funcret
   951   00137E                     __end_of_smerOtaceniPocitadloHran:
   952                           	callstack 0
   953                           
   954 ;; *************** function _preambleInitialization *****************
   955 ;; Defined at:
   956 ;;		line 16 in file "source/preambleInitialization.c"
   957 ;; Parameters:    Size  Location     Type
   958 ;;		None
   959 ;; Auto vars:     Size  Location     Type
   960 ;;		None
   961 ;; Return value:  Size  Location     Type
   962 ;;                  1    wreg      void 
   963 ;; Registers used:
   964 ;;		wreg, status,2
   965 ;; Tracked objects:
   966 ;;		On entry : 0/0
   967 ;;		On exit  : 0/0
   968 ;;		Unchanged: 0/0
   969 ;; Data sizes:     COMRAM   BANK0   BANK1   BANK2   BANK3   BANK4   BANK5   BANK6   BANK7   BANK8   BANK9  BANK10  BANK1
      +1  BANK12  BANK13  BANK14  BANK15
   970 ;;      Params:         0       0       0       0       0       0       0       0       0       0       0       0       
      +0       0       0       0       0
   971 ;;      Locals:         0       0       0       0       0       0       0       0       0       0       0       0       
      +0       0       0       0       0
   972 ;;      Temps:          0       0       0       0       0       0       0       0       0       0       0       0       
      +0       0       0       0       0
   973 ;;      Totals:         0       0       0       0       0       0       0       0       0       0       0       0       
      +0       0       0       0       0
   974 ;;Total ram usage:        0 bytes
   975 ;; Hardware stack levels used: 1
   976 ;; Hardware stack levels required when called: 2
   977 ;; This function calls:
   978 ;;		Nothing
   979 ;; This function is called by:
   980 ;;		_main
   981 ;; This function uses a non-reentrant model
   982 ;;
   983                           
   984                           	psect	text2
   985   001702                     __ptext2:
   986                           	callstack 0
   987   001702                     _preambleInitialization:
   988                           	callstack 28
   989   001702                     
   990                           ;source/preambleInitialization.c: 26:     OSCCONbits.SCS = 0;
   991   001702  0EFC               	movlw	-4
   992   001704  16D3               	andwf	211,f,c	;volatile
   993   001706                     
   994                           ;source/preambleInitialization.c: 28:     OSCTUNEbits.PLLEN = 1;
   995   001706  8C9B               	bsf	155,6,c	;volatile
   996   001708                     
   997                           ;source/preambleInitialization.c: 33:     RCONbits.IPEN = 1;
   998   001708  8ED0               	bsf	208,7,c	;volatile
   999   00170A  0012               	return		;funcret
  1000   00170C                     __end_of_preambleInitialization:
  1001                           	callstack 0
  1002                           
  1003 ;; *************** function _filtr *****************
  1004 ;; Defined at:
  1005 ;;		line 18 in file "source/filtr.c"
  1006 ;; Parameters:    Size  Location     Type
  1007 ;;  vstup           1    3[COMRAM] PTR int 
  1008 ;;		 -> B(2), A(2), vstup(2), 
  1009 ;;  stav            1    4[COMRAM] PTR int 
  1010 ;;		 -> stav_filtru_B(2), stav_filtru_A(2), stav_tlacitka(2), 
  1011 ;;  vystup          1    5[COMRAM] PTR int 
  1012 ;;		 -> filtrB(2), filtrA(2), filtrS4(2), 
  1013 ;; Auto vars:     Size  Location     Type
  1014 ;;		None
  1015 ;; Return value:  Size  Location     Type
  1016 ;;                  1    wreg      void 
  1017 ;; Registers used:
  1018 ;;		wreg, fsr2l, fsr2h, status,2, status,0
  1019 ;; Tracked objects:
  1020 ;;		On entry : 0/0
  1021 ;;		On exit  : 0/0
  1022 ;;		Unchanged: 0/0
  1023 ;; Data sizes:     COMRAM   BANK0   BANK1   BANK2   BANK3   BANK4   BANK5   BANK6   BANK7   BANK8   BANK9  BANK10  BANK1
      +1  BANK12  BANK13  BANK14  BANK15
  1024 ;;      Params:         3       0       0       0       0       0       0       0       0       0       0       0       
      +0       0       0       0       0
  1025 ;;      Locals:         0       0       0       0       0       0       0       0       0       0       0       0       
      +0       0       0       0       0
  1026 ;;      Temps:          2       0       0       0       0       0       0       0       0       0       0       0       
      +0       0       0       0       0
  1027 ;;      Totals:         5       0       0       0       0       0       0       0       0       0       0       0       
      +0       0       0       0       0
  1028 ;;Total ram usage:        5 bytes
  1029 ;; Hardware stack levels used: 1
  1030 ;; Hardware stack levels required when called: 2
  1031 ;; This function calls:
  1032 ;;		Nothing
  1033 ;; This function is called by:
  1034 ;;		_main
  1035 ;; This function uses a non-reentrant model
  1036 ;;
  1037                           
  1038                           	psect	text3
  1039   00137E                     __ptext3:
  1040                           	callstack 0
  1041   00137E                     _filtr:
  1042                           	callstack 28
  1043   00137E                     
  1044                           ;source/filtr.c: 19:     switch (*stav){
  1045   00137E  EF5D  F00A         	goto	l1106
  1046   001382                     l1074:
  1047                           
  1048                           ;source/filtr.c: 21:             if (*vstup == 1){
  1049   001382  5021               	movf	filtr@vstup^0,w,c
  1050   001384  6ED9               	movwf	fsr2l,c
  1051   001386  6ADA               	clrf	fsr2h,c
  1052   001388  04DE               	decf	postinc2,w,c
  1053   00138A  10DE               	iorwf	postinc2,w,c
  1054   00138C  A4D8               	btfss	status,2,c
  1055   00138E  EFCB  F009         	goto	u391
  1056   001392  EFCD  F009         	goto	u390
  1057   001396                     u391:
  1058   001396  EFD6  F009         	goto	l1078
  1059   00139A                     u390:
  1060   00139A                     l1076:
  1061                           
  1062                           ;source/filtr.c: 22:                 *stav = fs1;
  1063   00139A  5022               	movf	filtr@stav^0,w,c
  1064   00139C  6ED9               	movwf	fsr2l,c
  1065   00139E  6ADA               	clrf	fsr2h,c
  1066   0013A0  0E01               	movlw	1
  1067   0013A2  6EDE               	movwf	postinc2,c
  1068   0013A4  0E00               	movlw	0
  1069   0013A6  6EDD               	movwf	postdec2,c
  1070                           
  1071                           ;source/filtr.c: 23:             }
  1072   0013A8  EFDD  F009         	goto	l98
  1073   0013AC                     l1078:
  1074                           
  1075                           ;source/filtr.c: 25:                 *stav = fs3;
  1076   0013AC  5022               	movf	filtr@stav^0,w,c
  1077   0013AE  6ED9               	movwf	fsr2l,c
  1078   0013B0  6ADA               	clrf	fsr2h,c
  1079   0013B2  0E03               	movlw	3
  1080   0013B4  6EDE               	movwf	postinc2,c
  1081   0013B6  0E00               	movlw	0
  1082   0013B8  6EDD               	movwf	postdec2,c
  1083   0013BA                     l98:
  1084                           
  1085                           ;source/filtr.c: 27:             *vystup = 0;
  1086   0013BA  5023               	movf	filtr@vystup^0,w,c
  1087   0013BC  6ED9               	movwf	fsr2l,c
  1088   0013BE  6ADA               	clrf	fsr2h,c
  1089   0013C0  6ADE               	clrf	postinc2,c
  1090   0013C2  6ADD               	clrf	postdec2,c
  1091                           
  1092                           ;source/filtr.c: 28:             break;
  1093   0013C4  EF82  F00A         	goto	l112
  1094   0013C8                     l1080:
  1095                           
  1096                           ;source/filtr.c: 32:             if (*vstup == 1){
  1097   0013C8  5021               	movf	filtr@vstup^0,w,c
  1098   0013CA  6ED9               	movwf	fsr2l,c
  1099   0013CC  6ADA               	clrf	fsr2h,c
  1100   0013CE  04DE               	decf	postinc2,w,c
  1101   0013D0  10DE               	iorwf	postinc2,w,c
  1102   0013D2  A4D8               	btfss	status,2,c
  1103   0013D4  EFEE  F009         	goto	u401
  1104   0013D8  EFF0  F009         	goto	u400
  1105   0013DC                     u401:
  1106   0013DC  EFD6  F009         	goto	l1078
  1107   0013E0                     u400:
  1108   0013E0                     
  1109                           ;source/filtr.c: 33:                 *stav = fs2;
  1110   0013E0  5022               	movf	filtr@stav^0,w,c
  1111   0013E2  6ED9               	movwf	fsr2l,c
  1112   0013E4  6ADA               	clrf	fsr2h,c
  1113   0013E6  0E02               	movlw	2
  1114   0013E8  6EDE               	movwf	postinc2,c
  1115   0013EA  0E00               	movlw	0
  1116   0013EC  6EDD               	movwf	postdec2,c
  1117                           
  1118                           ;source/filtr.c: 34:             }
  1119   0013EE  EFDD  F009         	goto	l98
  1120   0013F2                     l1086:
  1121                           
  1122                           ;source/filtr.c: 43:             if (*vstup == 1){
  1123   0013F2  5021               	movf	filtr@vstup^0,w,c
  1124   0013F4  6ED9               	movwf	fsr2l,c
  1125   0013F6  6ADA               	clrf	fsr2h,c
  1126   0013F8  04DE               	decf	postinc2,w,c
  1127   0013FA  10DE               	iorwf	postinc2,w,c
  1128   0013FC  A4D8               	btfss	status,2,c
  1129   0013FE  EF03  F00A         	goto	u411
  1130   001402  EF05  F00A         	goto	u410
  1131   001406                     u411:
  1132   001406  EF15  F00A         	goto	l1090
  1133   00140A                     u410:
  1134   00140A                     
  1135                           ;source/filtr.c: 44:                 *stav = fs2;
  1136   00140A  5022               	movf	filtr@stav^0,w,c
  1137   00140C  6ED9               	movwf	fsr2l,c
  1138   00140E  6ADA               	clrf	fsr2h,c
  1139   001410  0E02               	movlw	2
  1140   001412  6EDE               	movwf	postinc2,c
  1141   001414  0E00               	movlw	0
  1142   001416  6EDD               	movwf	postdec2,c
  1143                           
  1144                           ;source/filtr.c: 45:                 *vystup = 1;
  1145   001418  5023               	movf	filtr@vystup^0,w,c
  1146   00141A  6ED9               	movwf	fsr2l,c
  1147   00141C  6ADA               	clrf	fsr2h,c
  1148   00141E  0E01               	movlw	1
  1149   001420  6EDE               	movwf	postinc2,c
  1150   001422  0E00               	movlw	0
  1151   001424  6EDD               	movwf	postdec2,c
  1152                           
  1153                           ;source/filtr.c: 46:             }
  1154   001426  EF82  F00A         	goto	l112
  1155   00142A                     l1090:
  1156                           
  1157                           ;source/filtr.c: 48:                 *stav = fs3;
  1158   00142A  5022               	movf	filtr@stav^0,w,c
  1159   00142C  6ED9               	movwf	fsr2l,c
  1160   00142E  6ADA               	clrf	fsr2h,c
  1161   001430  0E03               	movlw	3
  1162   001432  6EDE               	movwf	postinc2,c
  1163   001434  0E00               	movlw	0
  1164   001436  6EDD               	movwf	postdec2,c
  1165                           
  1166                           ;source/filtr.c: 49:                 *vystup = 0;
  1167   001438  5023               	movf	filtr@vystup^0,w,c
  1168   00143A  6ED9               	movwf	fsr2l,c
  1169   00143C  6ADA               	clrf	fsr2h,c
  1170   00143E  6ADE               	clrf	postinc2,c
  1171   001440  6ADD               	clrf	postdec2,c
  1172   001442  EF82  F00A         	goto	l112
  1173   001446                     l1092:
  1174                           
  1175                           ;source/filtr.c: 55:             if (*vstup == 1){
  1176   001446  5021               	movf	filtr@vstup^0,w,c
  1177   001448  6ED9               	movwf	fsr2l,c
  1178   00144A  6ADA               	clrf	fsr2h,c
  1179   00144C  04DE               	decf	postinc2,w,c
  1180   00144E  10DE               	iorwf	postinc2,w,c
  1181   001450  A4D8               	btfss	status,2,c
  1182   001452  EF2D  F00A         	goto	u421
  1183   001456  EF2F  F00A         	goto	u420
  1184   00145A                     u421:
  1185   00145A  EF31  F00A         	goto	l1096
  1186   00145E                     u420:
  1187   00145E  EFCD  F009         	goto	l1076
  1188   001462                     l1096:
  1189                           
  1190                           ;source/filtr.c: 59:                 *stav = fs4;
  1191   001462  5022               	movf	filtr@stav^0,w,c
  1192   001464  6ED9               	movwf	fsr2l,c
  1193   001466  6ADA               	clrf	fsr2h,c
  1194   001468  0E04               	movlw	4
  1195   00146A  6EDE               	movwf	postinc2,c
  1196   00146C  0E00               	movlw	0
  1197   00146E  6EDD               	movwf	postdec2,c
  1198   001470  EFDD  F009         	goto	l98
  1199   001474                     l1098:
  1200                           
  1201                           ;source/filtr.c: 66:             if (*vstup == 1){
  1202   001474  5021               	movf	filtr@vstup^0,w,c
  1203   001476  6ED9               	movwf	fsr2l,c
  1204   001478  6ADA               	clrf	fsr2h,c
  1205   00147A  04DE               	decf	postinc2,w,c
  1206   00147C  10DE               	iorwf	postinc2,w,c
  1207   00147E  A4D8               	btfss	status,2,c
  1208   001480  EF44  F00A         	goto	u431
  1209   001484  EF46  F00A         	goto	u430
  1210   001488                     u431:
  1211   001488  EF4F  F00A         	goto	l1102
  1212   00148C                     u430:
  1213   00148C                     
  1214                           ;source/filtr.c: 67:                 *stav = fs1;
  1215   00148C  5022               	movf	filtr@stav^0,w,c
  1216   00148E  6ED9               	movwf	fsr2l,c
  1217   001490  6ADA               	clrf	fsr2h,c
  1218   001492  0E01               	movlw	1
  1219   001494  6EDE               	movwf	postinc2,c
  1220   001496  0E00               	movlw	0
  1221   001498  6EDD               	movwf	postdec2,c
  1222                           
  1223                           ;source/filtr.c: 68:             }
  1224   00149A  EF82  F00A         	goto	l112
  1225   00149E                     l1102:
  1226                           
  1227                           ;source/filtr.c: 70:                 *stav = fs4;
  1228   00149E  5022               	movf	filtr@stav^0,w,c
  1229   0014A0  6ED9               	movwf	fsr2l,c
  1230   0014A2  6ADA               	clrf	fsr2h,c
  1231   0014A4  0E04               	movlw	4
  1232   0014A6  6EDE               	movwf	postinc2,c
  1233   0014A8  0E00               	movlw	0
  1234   0014AA  6EDD               	movwf	postdec2,c
  1235                           
  1236                           ;source/filtr.c: 71:                 *vystup = 0;
  1237   0014AC  5023               	movf	filtr@vystup^0,w,c
  1238   0014AE  6ED9               	movwf	fsr2l,c
  1239   0014B0  6ADA               	clrf	fsr2h,c
  1240   0014B2  6ADE               	clrf	postinc2,c
  1241   0014B4  6ADD               	clrf	postdec2,c
  1242   0014B6  EF82  F00A         	goto	l112
  1243   0014BA                     l1106:
  1244   0014BA  5022               	movf	filtr@stav^0,w,c
  1245   0014BC  6ED9               	movwf	fsr2l,c
  1246   0014BE  6ADA               	clrf	fsr2h,c
  1247   0014C0  CFDE F024          	movff	postinc2,??_filtr
  1248   0014C4  CFDD F025          	movff	postdec2,??_filtr+1
  1249                           
  1250                           ; Switch on 2 bytes has been partitioned into a top level switch of size 1, and 1 sub-sw
      +                          itches
  1251                           ; Switch size 1, requested type "simple"
  1252                           ; Number of cases is 1, Range of values is 0 to 0
  1253                           ; switch strategies available:
  1254                           ; Name         Instructions Cycles
  1255                           ; simple_byte            4     3 (average)
  1256                           ;	Chosen strategy is simple_byte
  1257   0014C8  5025               	movf	(??_filtr+1)^0,w,c
  1258   0014CA  0A00               	xorlw	0	; case 0
  1259   0014CC  B4D8               	btfsc	status,2,c
  1260   0014CE  EF6B  F00A         	goto	l1292
  1261   0014D2  EF82  F00A         	goto	l112
  1262   0014D6                     l1292:
  1263                           
  1264                           ; Switch size 1, requested type "simple"
  1265                           ; Number of cases is 5, Range of values is 0 to 4
  1266                           ; switch strategies available:
  1267                           ; Name         Instructions Cycles
  1268                           ; simple_byte           16     9 (average)
  1269                           ;	Chosen strategy is simple_byte
  1270   0014D6  5024               	movf	??_filtr^0,w,c
  1271   0014D8  0A00               	xorlw	0	; case 0
  1272   0014DA  B4D8               	btfsc	status,2,c
  1273   0014DC  EFC1  F009         	goto	l1074
  1274   0014E0  0A01               	xorlw	1	; case 1
  1275   0014E2  B4D8               	btfsc	status,2,c
  1276   0014E4  EFE4  F009         	goto	l1080
  1277   0014E8  0A03               	xorlw	3	; case 2
  1278   0014EA  B4D8               	btfsc	status,2,c
  1279   0014EC  EFF9  F009         	goto	l1086
  1280   0014F0  0A01               	xorlw	1	; case 3
  1281   0014F2  B4D8               	btfsc	status,2,c
  1282   0014F4  EF23  F00A         	goto	l1092
  1283   0014F8  0A07               	xorlw	7	; case 4
  1284   0014FA  B4D8               	btfsc	status,2,c
  1285   0014FC  EF3A  F00A         	goto	l1098
  1286   001500  EF82  F00A         	goto	l112
  1287   001504                     l112:
  1288   001504  0012               	return		;funcret
  1289   001506                     __end_of_filtr:
  1290                           	callstack 0
  1291                           
  1292 ;; *************** function _aretace *****************
  1293 ;; Defined at:
  1294 ;;		line 14 in file "source/aretace.c"
  1295 ;; Parameters:    Size  Location     Type
  1296 ;;  vstup           1    3[COMRAM] PTR int 
  1297 ;;		 -> filtrS4(2), 
  1298 ;;  stav            1    4[COMRAM] PTR int 
  1299 ;;		 -> stav_aretace(2), 
  1300 ;;  vystup          1    5[COMRAM] PTR int 
  1301 ;;		 -> zaaretovane_tlacitko(2), 
  1302 ;; Auto vars:     Size  Location     Type
  1303 ;;		None
  1304 ;; Return value:  Size  Location     Type
  1305 ;;                  1    wreg      void 
  1306 ;; Registers used:
  1307 ;;		wreg, fsr2l, fsr2h, status,2, status,0
  1308 ;; Tracked objects:
  1309 ;;		On entry : 0/0
  1310 ;;		On exit  : 0/0
  1311 ;;		Unchanged: 0/0
  1312 ;; Data sizes:     COMRAM   BANK0   BANK1   BANK2   BANK3   BANK4   BANK5   BANK6   BANK7   BANK8   BANK9  BANK10  BANK1
      +1  BANK12  BANK13  BANK14  BANK15
  1313 ;;      Params:         3       0       0       0       0       0       0       0       0       0       0       0       
      +0       0       0       0       0
  1314 ;;      Locals:         0       0       0       0       0       0       0       0       0       0       0       0       
      +0       0       0       0       0
  1315 ;;      Temps:          2       0       0       0       0       0       0       0       0       0       0       0       
      +0       0       0       0       0
  1316 ;;      Totals:         5       0       0       0       0       0       0       0       0       0       0       0       
      +0       0       0       0       0
  1317 ;;Total ram usage:        5 bytes
  1318 ;; Hardware stack levels used: 1
  1319 ;; Hardware stack levels required when called: 2
  1320 ;; This function calls:
  1321 ;;		Nothing
  1322 ;; This function is called by:
  1323 ;;		_main
  1324 ;; This function uses a non-reentrant model
  1325 ;;
  1326                           
  1327                           	psect	text4
  1328   001506                     __ptext4:
  1329                           	callstack 0
  1330   001506                     _aretace:
  1331                           	callstack 28
  1332   001506                     
  1333                           ;source/aretace.c: 15:     switch (*stav){
  1334   001506  EFE3  F00A         	goto	l1132
  1335   00150A                     l1114:
  1336                           
  1337                           ;source/aretace.c: 17:             if (*vstup == 1){
  1338   00150A  5021               	movf	aretace@vstup^0,w,c
  1339   00150C  6ED9               	movwf	fsr2l,c
  1340   00150E  6ADA               	clrf	fsr2h,c
  1341   001510  04DE               	decf	postinc2,w,c
  1342   001512  10DE               	iorwf	postinc2,w,c
  1343   001514  A4D8               	btfss	status,2,c
  1344   001516  EF8F  F00A         	goto	u441
  1345   00151A  EF91  F00A         	goto	u440
  1346   00151E                     u441:
  1347   00151E  EF04  F00B         	goto	l125
  1348   001522                     u440:
  1349   001522                     
  1350                           ;source/aretace.c: 18:                 *stav = as1;
  1351   001522  5022               	movf	aretace@stav^0,w,c
  1352   001524  6ED9               	movwf	fsr2l,c
  1353   001526  6ADA               	clrf	fsr2h,c
  1354   001528  0E01               	movlw	1
  1355   00152A  6EDE               	movwf	postinc2,c
  1356   00152C  0E00               	movlw	0
  1357   00152E  6EDD               	movwf	postdec2,c
  1358                           
  1359                           ;source/aretace.c: 19:                 *vystup = 1;
  1360   001530  5023               	movf	aretace@vystup^0,w,c
  1361   001532  6ED9               	movwf	fsr2l,c
  1362   001534  6ADA               	clrf	fsr2h,c
  1363   001536  0E01               	movlw	1
  1364   001538  6EDE               	movwf	postinc2,c
  1365   00153A  0E00               	movlw	0
  1366   00153C  6EDD               	movwf	postdec2,c
  1367   00153E  EF04  F00B         	goto	l125
  1368   001542                     l1118:
  1369                           
  1370                           ;source/aretace.c: 25:             if (*vstup == 0){
  1371   001542  5021               	movf	aretace@vstup^0,w,c
  1372   001544  6ED9               	movwf	fsr2l,c
  1373   001546  6ADA               	clrf	fsr2h,c
  1374   001548  50DE               	movf	postinc2,w,c
  1375   00154A  10DE               	iorwf	postinc2,w,c
  1376   00154C  A4D8               	btfss	status,2,c
  1377   00154E  EFAB  F00A         	goto	u451
  1378   001552  EFAD  F00A         	goto	u450
  1379   001556                     u451:
  1380   001556  EF04  F00B         	goto	l125
  1381   00155A                     u450:
  1382   00155A                     
  1383                           ;source/aretace.c: 26:                 *stav = as2;
  1384   00155A  5022               	movf	aretace@stav^0,w,c
  1385   00155C  6ED9               	movwf	fsr2l,c
  1386   00155E  6ADA               	clrf	fsr2h,c
  1387   001560  0E02               	movlw	2
  1388   001562  6EDE               	movwf	postinc2,c
  1389   001564  0E00               	movlw	0
  1390   001566  6EDD               	movwf	postdec2,c
  1391   001568  EF04  F00B         	goto	l125
  1392   00156C                     l1122:
  1393                           
  1394                           ;source/aretace.c: 33:             if (*vstup == 1){
  1395   00156C  5021               	movf	aretace@vstup^0,w,c
  1396   00156E  6ED9               	movwf	fsr2l,c
  1397   001570  6ADA               	clrf	fsr2h,c
  1398   001572  04DE               	decf	postinc2,w,c
  1399   001574  10DE               	iorwf	postinc2,w,c
  1400   001576  A4D8               	btfss	status,2,c
  1401   001578  EFC0  F00A         	goto	u461
  1402   00157C  EFC2  F00A         	goto	u460
  1403   001580                     u461:
  1404   001580  EF04  F00B         	goto	l125
  1405   001584                     u460:
  1406   001584                     
  1407                           ;source/aretace.c: 34:                 *stav = as3;
  1408   001584  5022               	movf	aretace@stav^0,w,c
  1409   001586  6ED9               	movwf	fsr2l,c
  1410   001588  6ADA               	clrf	fsr2h,c
  1411   00158A  0E03               	movlw	3
  1412   00158C  6EDE               	movwf	postinc2,c
  1413   00158E  0E00               	movlw	0
  1414   001590  6EDD               	movwf	postdec2,c
  1415                           
  1416                           ;source/aretace.c: 35:                 *vystup = 0;
  1417   001592  5023               	movf	aretace@vystup^0,w,c
  1418   001594  6ED9               	movwf	fsr2l,c
  1419   001596  6ADA               	clrf	fsr2h,c
  1420   001598  6ADE               	clrf	postinc2,c
  1421   00159A  6ADD               	clrf	postdec2,c
  1422   00159C  EF04  F00B         	goto	l125
  1423   0015A0                     l1126:
  1424                           
  1425                           ;source/aretace.c: 41:             if (*vstup == 0){
  1426   0015A0  5021               	movf	aretace@vstup^0,w,c
  1427   0015A2  6ED9               	movwf	fsr2l,c
  1428   0015A4  6ADA               	clrf	fsr2h,c
  1429   0015A6  50DE               	movf	postinc2,w,c
  1430   0015A8  10DE               	iorwf	postinc2,w,c
  1431   0015AA  A4D8               	btfss	status,2,c
  1432   0015AC  EFDA  F00A         	goto	u471
  1433   0015B0  EFDC  F00A         	goto	u470
  1434   0015B4                     u471:
  1435   0015B4  EF04  F00B         	goto	l125
  1436   0015B8                     u470:
  1437   0015B8                     
  1438                           ;source/aretace.c: 42:                 *stav = as0;
  1439   0015B8  5022               	movf	aretace@stav^0,w,c
  1440   0015BA  6ED9               	movwf	fsr2l,c
  1441   0015BC  6ADA               	clrf	fsr2h,c
  1442   0015BE  6ADE               	clrf	postinc2,c
  1443   0015C0  6ADD               	clrf	postdec2,c
  1444   0015C2  EF04  F00B         	goto	l125
  1445   0015C6                     l1132:
  1446   0015C6  5022               	movf	aretace@stav^0,w,c
  1447   0015C8  6ED9               	movwf	fsr2l,c
  1448   0015CA  6ADA               	clrf	fsr2h,c
  1449   0015CC  CFDE F024          	movff	postinc2,??_aretace
  1450   0015D0  CFDD F025          	movff	postdec2,??_aretace+1
  1451                           
  1452                           ; Switch on 2 bytes has been partitioned into a top level switch of size 1, and 1 sub-sw
      +                          itches
  1453                           ; Switch size 1, requested type "simple"
  1454                           ; Number of cases is 1, Range of values is 0 to 0
  1455                           ; switch strategies available:
  1456                           ; Name         Instructions Cycles
  1457                           ; simple_byte            4     3 (average)
  1458                           ;	Chosen strategy is simple_byte
  1459   0015D4  5025               	movf	(??_aretace+1)^0,w,c
  1460   0015D6  0A00               	xorlw	0	; case 0
  1461   0015D8  B4D8               	btfsc	status,2,c
  1462   0015DA  EFF1  F00A         	goto	l1294
  1463   0015DE  EF04  F00B         	goto	l125
  1464   0015E2                     l1294:
  1465                           
  1466                           ; Switch size 1, requested type "simple"
  1467                           ; Number of cases is 4, Range of values is 0 to 3
  1468                           ; switch strategies available:
  1469                           ; Name         Instructions Cycles
  1470                           ; simple_byte           13     7 (average)
  1471                           ;	Chosen strategy is simple_byte
  1472   0015E2  5024               	movf	??_aretace^0,w,c
  1473   0015E4  0A00               	xorlw	0	; case 0
  1474   0015E6  B4D8               	btfsc	status,2,c
  1475   0015E8  EF85  F00A         	goto	l1114
  1476   0015EC  0A01               	xorlw	1	; case 1
  1477   0015EE  B4D8               	btfsc	status,2,c
  1478   0015F0  EFA1  F00A         	goto	l1118
  1479   0015F4  0A03               	xorlw	3	; case 2
  1480   0015F6  B4D8               	btfsc	status,2,c
  1481   0015F8  EFB6  F00A         	goto	l1122
  1482   0015FC  0A01               	xorlw	1	; case 3
  1483   0015FE  B4D8               	btfsc	status,2,c
  1484   001600  EFD0  F00A         	goto	l1126
  1485   001604  EF04  F00B         	goto	l125
  1486   001608                     l125:
  1487   001608  0012               	return		;funcret
  1488   00160A                     __end_of_aretace:
  1489                           	callstack 0
  1490                           
  1491 ;; *************** function _low_isr *****************
  1492 ;; Defined at:
  1493 ;;		line 118 in file "source/main.c"
  1494 ;; Parameters:    Size  Location     Type
  1495 ;;		None
  1496 ;; Auto vars:     Size  Location     Type
  1497 ;;		None
  1498 ;; Return value:  Size  Location     Type
  1499 ;;                  1    wreg      void 
  1500 ;; Registers used:
  1501 ;;		wreg, status,2
  1502 ;; Tracked objects:
  1503 ;;		On entry : 0/0
  1504 ;;		On exit  : 0/0
  1505 ;;		Unchanged: 0/0
  1506 ;; Data sizes:     COMRAM   BANK0   BANK1   BANK2   BANK3   BANK4   BANK5   BANK6   BANK7   BANK8   BANK9  BANK10  BANK1
      +1  BANK12  BANK13  BANK14  BANK15
  1507 ;;      Params:         0       0       0       0       0       0       0       0       0       0       0       0       
      +0       0       0       0       0
  1508 ;;      Locals:         0       0       0       0       0       0       0       0       0       0       0       0       
      +0       0       0       0       0
  1509 ;;      Temps:          3       0       0       0       0       0       0       0       0       0       0       0       
      +0       0       0       0       0
  1510 ;;      Totals:         3       0       0       0       0       0       0       0       0       0       0       0       
      +0       0       0       0       0
  1511 ;;Total ram usage:        3 bytes
  1512 ;; Hardware stack levels used: 1
  1513 ;; Hardware stack levels required when called: 1
  1514 ;; This function calls:
  1515 ;;		Nothing
  1516 ;; This function is called by:
  1517 ;;		Interrupt level 1
  1518 ;; This function uses a non-reentrant model
  1519 ;;
  1520                           
  1521                           	psect	intcodelo
  1522   000018                     __pintcodelo:
  1523                           	callstack 0
  1524   000018                     _low_isr:
  1525                           	callstack 28
  1526                           
  1527                           ;incstack = 0
  1528   000018  8029               	bsf	int$flags,0,c	;set compiler interrupt flag (level 1)
  1529   00001A  CFD8 F01E          	movff	status,??_low_isr
  1530   00001E  CFE8 F01F          	movff	wreg,??_low_isr+1
  1531   000022  CFE0 F020          	movff	bsr,??_low_isr+2
  1532   000026                     
  1533                           ;source/main.c: 119:     if (INTCONbits.TMR0IF == 1){
  1534   000026  A4F2               	btfss	242,2,c	;volatile
  1535   000028  EF18  F000         	goto	i1u38_21
  1536   00002C  EF1A  F000         	goto	i1u38_20
  1537   000030                     i1u38_21:
  1538   000030  EF21  F000         	goto	i1l75
  1539   000034                     i1u38_20:
  1540   000034                     
  1541                           ;source/main.c: 120:         TMR0H = 0xD8;
  1542   000034  0ED8               	movlw	216
  1543   000036  6ED7               	movwf	215,c	;volatile
  1544                           
  1545                           ;source/main.c: 121:         TMR0L = 0xEF;
  1546   000038  0EEF               	movlw	239
  1547   00003A  6ED6               	movwf	214,c	;volatile
  1548   00003C                     
  1549                           ;source/main.c: 122:         INTCONbits.TMR0IF = 0;
  1550   00003C  94F2               	bcf	242,2,c	;volatile
  1551                           
  1552                           ;source/main.c: 124:         casove_preruseni=1;
  1553   00003E  0E01               	movlw	1
  1554   000040  6E01               	movwf	_casove_preruseni^0,c
  1555   000042                     i1l75:
  1556   000042  C020  FFE0         	movff	??_low_isr+2,bsr
  1557   000046  C01F  FFE8         	movff	??_low_isr+1,wreg
  1558   00004A  C01E  FFD8         	movff	??_low_isr,status
  1559   00004E  9029               	bcf	int$flags,0,c	;clear compiler interrupt flag (level 1)
  1560   000050  0010               	retfie	
  1561   000052                     __end_of_low_isr:
  1562                           	callstack 0
  1563                           
  1564 ;; *************** function _high_isr *****************
  1565 ;; Defined at:
  1566 ;;		line 112 in file "source/main.c"
  1567 ;; Parameters:    Size  Location     Type
  1568 ;;		None
  1569 ;; Auto vars:     Size  Location     Type
  1570 ;;		None
  1571 ;; Return value:  Size  Location     Type
  1572 ;;                  1    wreg      void 
  1573 ;; Registers used:
  1574 ;;		None
  1575 ;; Tracked objects:
  1576 ;;		On entry : 0/0
  1577 ;;		On exit  : 0/0
  1578 ;;		Unchanged: 0/0
  1579 ;; Data sizes:     COMRAM   BANK0   BANK1   BANK2   BANK3   BANK4   BANK5   BANK6   BANK7   BANK8   BANK9  BANK10  BANK1
      +1  BANK12  BANK13  BANK14  BANK15
  1580 ;;      Params:         0       0       0       0       0       0       0       0       0       0       0       0       
      +0       0       0       0       0
  1581 ;;      Locals:         0       0       0       0       0       0       0       0       0       0       0       0       
      +0       0       0       0       0
  1582 ;;      Temps:          0       0       0       0       0       0       0       0       0       0       0       0       
      +0       0       0       0       0
  1583 ;;      Totals:         0       0       0       0       0       0       0       0       0       0       0       0       
      +0       0       0       0       0
  1584 ;;Total ram usage:        0 bytes
  1585 ;; Hardware stack levels used: 1
  1586 ;; This function calls:
  1587 ;;		Nothing
  1588 ;; This function is called by:
  1589 ;;		Interrupt level 2
  1590 ;; This function uses a non-reentrant model
  1591 ;;
  1592                           
  1593                           	psect	intcode
  1594   000008                     __pintcode:
  1595                           	callstack 0
  1596   000008                     _high_isr:
  1597                           	callstack 28
  1598                           
  1599                           ;incstack = 0
  1600   000008  8229               	bsf	int$flags,1,c	;set compiler interrupt flag (level 2)
  1601   00000A  EF86  F00B         	goto	int_func
  1602                           
  1603                           	psect	intcode_body
  1604   00170C                     __pintcode_body:
  1605                           	callstack 28
  1606   00170C                     int_func:
  1607                           	callstack 28
  1608   00170C  9229               	bcf	int$flags,1,c	;clear compiler interrupt flag (level 2)
  1609   00170E  0011               	retfie		f
  1610   001710                     __end_of_high_isr:
  1611                           	callstack 0
  1612                           
  1613                           	psect	smallconst
  1614   001000                     __psmallconst:
  1615                           	callstack 0
  1616   001000  00                 	db	0
  1617   001001  00                 	db	0	; dummy byte at the end
  1618   000000                     
  1619                           	psect	rparam
  1620   000000                     
  1621                           	psect	temp
  1622   000029                     btemp:
  1623                           	callstack 0
  1624   000029                     	ds	1
  1625   000000                     int$flags	set	btemp
  1626   000000                     wtemp8	set	btemp+1
  1627   000000                     ttemp5	set	btemp+1
  1628   000000                     ttemp6	set	btemp+4
  1629   000000                     ttemp7	set	btemp+8
  1630                           
  1631                           	psect	config
  1632                           
  1633                           ;Config register CONFIG1L @ 0x1FFF8
  1634                           ;	Watchdog Timer Enable bit
  1635                           ;	WDTEN = OFF, WDT disabled (control is placed on SWDTEN bit)
  1636                           ;	Stack Overflow/Underflow Reset Enable bit
  1637                           ;	STVREN = ON, Reset on stack overflow/underflow enabled
  1638                           ;	Extended Instruction Set Enable bit
  1639                           ;	XINST = OFF, Instruction set extension and Indexed Addressing mode disabled (Legacy mo
      +                          de)
  1640                           ;	Background Debugger Enable bit
  1641                           ;	DEBUG = 0x1, unprogrammed default
  1642   01FFF8                     	org	131064
  1643   01FFF8  A0                 	db	160
  1644                           
  1645                           ;Config register CONFIG1H @ 0x1FFF9
  1646                           ;	Code Protection bit
  1647                           ;	CP0 = OFF, Program memory is not code-protected
  1648   01FFF9                     	org	131065
  1649   01FFF9  F4                 	db	244
  1650                           
  1651                           ;Config register CONFIG2L @ 0x1FFFA
  1652                           ;	Oscillator Selection bits
  1653                           ;	FOSC = HSPLL, HS oscillator, PLL enabled
  1654                           ;	Fail-Safe Clock Monitor Enable bit
  1655                           ;	FCMEN = OFF, Fail-Safe Clock Monitor disabled
  1656                           ;	Two-Speed Start-up (Internal/External Oscillator Switchover) Control bit
  1657                           ;	IESO = OFF, Two-Speed Start-up disabled
  1658   01FFFA                     	org	131066
  1659   01FFFA  05                 	db	5
  1660                           
  1661                           ;Config register CONFIG2H @ 0x1FFFB
  1662                           ;	Watchdog Timer Postscaler Select bits
  1663                           ;	WDTPS = 32768, 1:32768
  1664   01FFFB                     	org	131067
  1665   01FFFB  FF                 	db	255
  1666                           
  1667                           ;Config register CONFIG3L @ 0x1FFFC
  1668                           ;	External Address Bus Shift Enable bit
  1669                           ;	EASHFT = 0x1, unprogrammed default
  1670                           ;	External Memory Bus Configuration bits
  1671                           ;	MODE = MM, Microcontroller mode - External bus disabled
  1672                           ;	Data Bus Width Select bit
  1673                           ;	BW = 0x1, unprogrammed default
  1674                           ;	External Bus Wait Enable bit
  1675                           ;	WAIT = 0x1, unprogrammed default
  1676   01FFFC                     	org	131068
  1677   01FFFC  F8                 	db	248
  1678                           
  1679                           ;Config register CONFIG3H @ 0x1FFFD
  1680                           ;	unspecified, using default values
  1681                           ;	ECCP2 MUX bit
  1682                           ;	CCP2MX = 0x1, unprogrammed default
  1683                           ;	ECCPx MUX bit
  1684                           ;	ECCPMX = 0x1, unprogrammed default
  1685                           ;	PMP Pin Multiplex bit
  1686                           ;	PMPMX = 0x1, unprogrammed default
  1687                           ;	MSSP Address Masking Mode Select bit
  1688                           ;	MSSPMSK = 0x1, unprogrammed default
  1689   01FFFD                     	org	131069
  1690   01FFFD  FF                 	db	255
  1691                           tosu	equ	0xFFF
  1692                           tosh	equ	0xFFE
  1693                           tosl	equ	0xFFD
  1694                           stkptr	equ	0xFFC
  1695                           pclatu	equ	0xFFB
  1696                           pclath	equ	0xFFA
  1697                           pcl	equ	0xFF9
  1698                           tblptru	equ	0xFF8
  1699                           tblptrh	equ	0xFF7
  1700                           tblptrl	equ	0xFF6
  1701                           tablat	equ	0xFF5
  1702                           prodh	equ	0xFF4
  1703                           prodl	equ	0xFF3
  1704                           indf0	equ	0xFEF
  1705                           postinc0	equ	0xFEE
  1706                           postdec0	equ	0xFED
  1707                           preinc0	equ	0xFEC
  1708                           plusw0	equ	0xFEB
  1709                           fsr0h	equ	0xFEA
  1710                           fsr0l	equ	0xFE9
  1711                           wreg	equ	0xFE8
  1712                           indf1	equ	0xFE7
  1713                           postinc1	equ	0xFE6
  1714                           postdec1	equ	0xFE5
  1715                           preinc1	equ	0xFE4
  1716                           plusw1	equ	0xFE3
  1717                           fsr1h	equ	0xFE2
  1718                           fsr1l	equ	0xFE1
  1719                           bsr	equ	0xFE0
  1720                           indf2	equ	0xFDF
  1721                           postinc2	equ	0xFDE
  1722                           postdec2	equ	0xFDD
  1723                           preinc2	equ	0xFDC
  1724                           plusw2	equ	0xFDB
  1725                           fsr2h	equ	0xFDA
  1726                           fsr2l	equ	0xFD9
  1727                           status	equ	0xFD8

Data Sizes:
    Strings     0
    Constant    0
    Data        0
    BSS         29
    Persistent  0
    Stack       0

Auto Spaces:
    Space          Size  Autos    Used
    COMRAM           94     11      40
    BANK0           160      0       0
    BANK1           256      0       0
    BANK2           256      0       0
    BANK3           256      0       0
    BANK4           256      0       0
    BANK5           256      0       0
    BANK6           256      0       0
    BANK7           256      0       0
    BANK8           256      0       0
    BANK9           256      0       0
    BANK10          256      0       0
    BANK11          256      0       0
    BANK12          256      0       0
    BANK13          256      0       0
    BANK14          256      0       0
    BANK15           64      0       0

Pointer List with Targets:

    aretace@stav	PTR int  size(1) Largest target is 2
		 -> stav_aretace(COMRAM[2]), 

    aretace@vstup	PTR int  size(1) Largest target is 2
		 -> filtrS4(COMRAM[2]), 

    aretace@vystup	PTR int  size(1) Largest target is 2
		 -> zaaretovane_tlacitko(COMRAM[2]), 

    filtr@stav	PTR int  size(1) Largest target is 2
		 -> stav_filtru_A(COMRAM[2]), stav_filtru_B(COMRAM[2]), stav_tlacitka(COMRAM[2]), 

    filtr@vstup	PTR int  size(1) Largest target is 2
		 -> A(COMRAM[2]), B(COMRAM[2]), vstup(COMRAM[2]), 

    filtr@vystup	PTR int  size(1) Largest target is 2
		 -> filtrA(COMRAM[2]), filtrB(COMRAM[2]), filtrS4(COMRAM[2]), 

    smerOtaceniPocitadloHran@A	PTR int  size(1) Largest target is 2
		 -> A(COMRAM[2]), 

    smerOtaceniPocitadloHran@B	PTR int  size(1) Largest target is 2
		 -> B(COMRAM[2]), 

    smerOtaceniPocitadloHran@pocet	PTR int  size(1) Largest target is 2
		 -> pocet(COMRAM[2]), 

    smerOtaceniPocitadloHran@smer	PTR int  size(1) Largest target is 2
		 -> smer(COMRAM[2]), 

    smerOtaceniPocitadloHran@stav	PTR int  size(1) Largest target is 2
		 -> stav_koderu(COMRAM[2]), 


Critical Paths under _main in COMRAM

    _main->_smerOtaceniPocitadloHran

Critical Paths under _low_isr in COMRAM

    None.

Critical Paths under _high_isr in COMRAM

    None.

Critical Paths under _main in BANK0

    None.

Critical Paths under _low_isr in BANK0

    None.

Critical Paths under _high_isr in BANK0

    None.

Critical Paths under _main in BANK1

    None.

Critical Paths under _low_isr in BANK1

    None.

Critical Paths under _high_isr in BANK1

    None.

Critical Paths under _main in BANK2

    None.

Critical Paths under _low_isr in BANK2

    None.

Critical Paths under _high_isr in BANK2

    None.

Critical Paths under _main in BANK3

    None.

Critical Paths under _low_isr in BANK3

    None.

Critical Paths under _high_isr in BANK3

    None.

Critical Paths under _main in BANK4

    None.

Critical Paths under _low_isr in BANK4

    None.

Critical Paths under _high_isr in BANK4

    None.

Critical Paths under _main in BANK5

    None.

Critical Paths under _low_isr in BANK5

    None.

Critical Paths under _high_isr in BANK5

    None.

Critical Paths under _main in BANK6

    None.

Critical Paths under _low_isr in BANK6

    None.

Critical Paths under _high_isr in BANK6

    None.

Critical Paths under _main in BANK7

    None.

Critical Paths under _low_isr in BANK7

    None.

Critical Paths under _high_isr in BANK7

    None.

Critical Paths under _main in BANK8

    None.

Critical Paths under _low_isr in BANK8

    None.

Critical Paths under _high_isr in BANK8

    None.

Critical Paths under _main in BANK9

    None.

Critical Paths under _low_isr in BANK9

    None.

Critical Paths under _high_isr in BANK9

    None.

Critical Paths under _main in BANK10

    None.

Critical Paths under _low_isr in BANK10

    None.

Critical Paths under _high_isr in BANK10

    None.

Critical Paths under _main in BANK11

    None.

Critical Paths under _low_isr in BANK11

    None.

Critical Paths under _high_isr in BANK11

    None.

Critical Paths under _main in BANK12

    None.

Critical Paths under _low_isr in BANK12

    None.

Critical Paths under _high_isr in BANK12

    None.

Critical Paths under _main in BANK13

    None.

Critical Paths under _low_isr in BANK13

    None.

Critical Paths under _high_isr in BANK13

    None.

Critical Paths under _main in BANK14

    None.

Critical Paths under _low_isr in BANK14

    None.

Critical Paths under _high_isr in BANK14

    None.

Critical Paths under _main in BANK15

    None.

Critical Paths under _low_isr in BANK15

    None.

Critical Paths under _high_isr in BANK15

    None.

Call Graph Tables:

 ---------------------------------------------------------------------------------
 (Depth) Function   	        Calls       Base Space   Used Autos Params    Refs
 ---------------------------------------------------------------------------------
 (0) _main                                                 1     1      0    2928
                                             10 COMRAM     1     1      0
                            _aretace
                              _filtr
             _preambleInitialization
           _smerOtaceniPocitadloHran
 ---------------------------------------------------------------------------------
 (1) _smerOtaceniPocitadloHran                             7     2      5    1290
                                              3 COMRAM     7     2      5
 ---------------------------------------------------------------------------------
 (1) _preambleInitialization                               0     0      0       0
 ---------------------------------------------------------------------------------
 (1) _filtr                                                5     2      3    1168
                                              3 COMRAM     5     2      3
 ---------------------------------------------------------------------------------
 (1) _aretace                                              5     2      3     470
                                              3 COMRAM     5     2      3
 ---------------------------------------------------------------------------------
 Estimated maximum stack depth 1
 ---------------------------------------------------------------------------------
 (Depth) Function   	        Calls       Base Space   Used Autos Params    Refs
 ---------------------------------------------------------------------------------
 (2) _low_isr                                              3     3      0       0
                                              0 COMRAM     3     3      0
 ---------------------------------------------------------------------------------
 Estimated maximum stack depth 2
 ---------------------------------------------------------------------------------
 (Depth) Function   	        Calls       Base Space   Used Autos Params    Refs
 ---------------------------------------------------------------------------------
 (3) _high_isr                                             0     0      0       0
 ---------------------------------------------------------------------------------
 Estimated maximum stack depth 3
 ---------------------------------------------------------------------------------

 Call Graph Graphs:

 _main (ROOT)
   _aretace
   _filtr
   _preambleInitialization
   _smerOtaceniPocitadloHran

 _low_isr (ROOT)

 _high_isr (ROOT)

 Address spaces:
Name               Size   Autos  Total    Cost      Usage
BIGRAM             F3F      0       0      44        0.0%
BITBANK14          100      0       0      33        0.0%
BANK14             100      0       0      34        0.0%
BITBANK13          100      0       0      31        0.0%
BANK13             100      0       0      32        0.0%
BITBANK12          100      0       0      29        0.0%
BANK12             100      0       0      30        0.0%
BITBANK11          100      0       0      26        0.0%
BANK11             100      0       0      27        0.0%
BITBANK10          100      0       0      24        0.0%
BANK10             100      0       0      25        0.0%
BITBANK9           100      0       0      22        0.0%
BANK9              100      0       0      23        0.0%
BITBANK8           100      0       0      20        0.0%
BANK8              100      0       0      21        0.0%
BITBANK7           100      0       0      18        0.0%
BANK7              100      0       0      19        0.0%
BITBANK6           100      0       0      16        0.0%
BANK6              100      0       0      17        0.0%
BITBANK5           100      0       0      14        0.0%
BANK5              100      0       0      15        0.0%
BITBANK4           100      0       0      12        0.0%
BANK4              100      0       0      13        0.0%
BITBANK3           100      0       0      10        0.0%
BANK3              100      0       0      11        0.0%
BITBANK2           100      0       0       8        0.0%
BANK2              100      0       0       9        0.0%
BITBANK1           100      0       0       6        0.0%
BANK1              100      0       0       7        0.0%
BITBANK0            A0      0       0       4        0.0%
BANK0               A0      0       0       5        0.0%
BITCOMRAM           5E      0       0       0        0.0%
COMRAM              5E      B      28       1       42.6%
BITBANK15           40      0       0      35        0.0%
BANK15              40      0       0      36        0.0%
BITBIGSFRlhlhl      34      0       0      41        0.0%
BITBIGSFRll         2E      0       0      43        0.0%
BITBIGSFRhhl        19      0       0      38        0.0%
BITBIGSFRlhll       12      0       0      42        0.0%
BITBIGSFRhhh         D      0       0      37        0.0%
BITBIGSFRlhlhh       2      0       0      40        0.0%
BITBIGSFRlhh         1      0       0      39        0.0%
BIGSFR               0      0       0     200        0.0%
BITSFR_1             0      0       0     200        0.0%
SFR_1                0      0       0     200        0.0%
BITSFR               0      0       0     200        0.0%
SFR                  0      0       0     200        0.0%
STACK                0      0       0       2        0.0%
NULL                 0      0       0       0        0.0%
ABS                  0      0      28      28        0.0%
DATA                 0      0      28       3        0.0%
CODE                 0      0       0       0        0.0%


Microchip Technology PIC18 Macro Assembler V2.45 build 20230818022343 
Symbol Table                                                                                   Mon Dec  4 23:47:20 2023

                               _A 0012                                 _B 0010                                l86 170A  
                              l98 13BA                                bsr 0FE0                       _stav_koderu 000A  
                             l112 1504                               l125 1608                               l162 137C  
                             l840 1706                               l842 1708                               l838 1702  
                             u400 13E0                               u401 13DC                               u410 140A  
                             u411 1406                               u420 145E                               u500 104E  
                             u421 145A                               u501 104A                               u430 148C  
                             u510 108A                               u431 1488                               u511 1086  
                             u440 1522                               u600 11D2                               u520 10A2  
                             u441 151E                               u601 11CE                               u521 109E  
                             u450 155A                               u610 11EA                               u530 10BA  
                             u451 1556                               u611 11E6                               u531 10B6  
                             u460 1584                               u700 1308                               u620 1202  
                             u540 10FA                               u461 1580                               u701 1304  
                             u621 11FE                               u541 10F6                               u470 15B8  
                             u390 139A                               u710 1320                               u630 1230  
                             u550 1112                               u471 15B4                               u391 1396  
                             u711 131C                               u631 122C                               u551 110E  
                             u640 1248                               u560 112A                               u480 101E  
                             u720 163A                               u641 1244                               u561 1126  
                             u481 101A                               u721 1636                               u650 1260  
                             u570 1166                               u490 1036                               u730 1650  
                             u651 125C                               u571 1162                               u491 1032  
                             u731 1648                               u660 1292                               u580 117E  
                             u740 168A                               u661 128E                               u581 117A  
                             u741 1682                               u670 12AA                               u590 1196  
                             u750 16B4                               u671 12A6                               u591 1192  
                             u751 16AC                               u680 12C2                               u681 12BE  
                             u690 12F0                               u738 1652                               u691 12EC  
                             u748 168C                               u758 16B6                      _stav_aretace 0016  
                             wreg 0FE8        ??_smerOtaceniPocitadloHran 0026                              l1100 148C  
                            l1102 149E                              l1120 155A                              l1112 1506  
                            l1200 1218                              l1122 156C                              l1114 150A  
                            l1106 14BA                              l1202 1230                              l1124 1584  
                            l1116 1522                              l1132 15C6                              l1220 12D0  
                            l1212 127A                              l1204 1248                              l1140 1006  
                            l1126 15A0                              l1118 1542                              l1230 1320  
                            l1214 1292                              l1206 1260                              l1150 1060  
                            l1142 101E                              l1128 15B8                              l1080 13C8  
                            l1072 137E                              l1232 1332                              l1216 12AA  
                            l1224 12D8                              l1208 1272                              l1160 10CC  
                            l1144 1036                              l1152 1072                              l1090 142A  
                            l1082 13E0                              l1074 1382                              l1226 12F0  
                            l1218 12C2                              l1170 112A                              l1162 10D0  
                            l1154 108A                              l1146 104E                              l1138 1002  
                            l1250 1614                              l1092 1446                              l1076 139A  
                            l1228 1308                              l1180 117E                              l1172 1138  
                            l1164 10E2                              l1156 10A2                              l1148 105C  
                            l1260 1624                              l1252 1618                              l1244 160A  
                            l1086 13F2                              l1078 13AC                              l1190 11D2  
                            l1182 1196                              l1174 113C                              l1166 10FA  
                            l1158 10BA                              l1238 133A                              l1270 1658  
                            l1262 1626                              l1254 161C                              l1246 160E  
                            l1096 1462                              l1088 140A                              l1192 11EA  
                            l1184 11A8                              l1168 1112                              l1176 114E  
                            l1272 1668                              l1264 1628                              l1256 161E  
                            l1248 1612                              l1098 1474                              l1290 1356  
                            l1194 1202                              l1186 11AC                              l1178 1166  
                            l1274 1692                              l1266 162A                              l1258 1622  
                            l1292 14D6                              l1196 1210                              l1188 11BA  
                            l1276 16A2                              l1268 163A                              l1294 15E2  
                            i1l75 0042                              i2l69 170C                              _main 160A  
                            _smer 0004                              fsr2h 0FDA                              fsr2l 0FD9  
                            btemp 0029                              start 0052                     _stav_filtru_A 0008  
                   _stav_filtru_B 0006                      ___param_bank 0000                       filtr@vystup 0023  
                           ?_main 001E                     _stav_tlacitka 0018                             _T0CON 0FD5  
                           _TMR0H 0FD7                             _TMR0L 0FD6                   __end_of_aretace 160A  
                           _filtr 137E                             _pocet 0002                             _vstup 001C  
                 __end_of_low_isr 0052              _zaaretovane_tlacitko 0014                             ttemp5 002A  
                           ttemp6 002D                             ttemp7 0031                             status 0FD8  
                           wtemp8 002A                   __initialization 16EC                      __end_of_main 16EC  
                          ??_main 0028                     __activetblptr 0003                            ?_filtr 0021  
                          i1l1050 0026                            i1l1052 0034                            i1l1054 003C  
   smerOtaceniPocitadloHran@pocet 0025                  __end_of_high_isr 1710                            _filtrA 000E  
                          _filtrB 000C            _preambleInitialization 1702                            clear_0 16F2  
                          isa$std 0001                         ??_aretace 0024  __end_of_smerOtaceniPocitadloHran 137E  
                    __mediumconst 0000                         ??_low_isr 001E                        __accesstop 0060  
         __end_of__initialization 16F8                     ___rparam_used 0001                    __pcstackCOMRAM 001E  
                   __end_of_filtr 1506                           ??_filtr 0024                  _casove_preruseni 0001  
                         _INTCON2 0FF1                           i1u38_20 0034                           i1u38_21 0030  
                       ?_high_isr 001E                           __Hparam 0000         ?_smerOtaceniPocitadloHran 0021  
                         __Lparam 0000                      __psmallconst 1000                           __pcinit 16EC  
                         __ramtop 1000                           _aretace 1506                           __ptext0 160A  
                         __ptext1 1002                           __ptext2 1702                           __ptext3 137E  
                         __ptext4 1506                           _filtrS4 001A                         _T0CONbits 0FD5  
                         _low_isr 0018                        ??_high_isr 001E                    __pintcode_body 170C  
            end_of_initialization 16F8                           int_func 170C           ?_preambleInitialization 001E  
                         postdec2 0FDD                           postinc0 0FEE                           postinc2 0FDE  
                       _PORTJbits 0F88    __end_of_preambleInitialization 170C                        filtr@vstup 0021  
             start_initialization 16EC                       __pbssCOMRAM 0001                         __pintcode 0008  
                     __pintcodelo 0018                          ?_aretace 0021                       __smallconst 1000  
                        ?_low_isr 001E                          _RCONbits 0FD0                         filtr@stav 0022  
        _smerOtaceniPocitadloHran 1002                          __Hrparam 0000                          __Lrparam 0000  
    smerOtaceniPocitadloHran@smer 0024      smerOtaceniPocitadloHran@stav 0023                          _high_isr 0008  
                        isa$xinst 0000                          int$flags 0029                     aretace@vystup 0023  
                     _OSCTUNEbits 0F9B                        _INTCONbits 0FF2                          intlevel1 0000  
                        intlevel2 0000                        _OSCCONbits 0FD3                      aretace@vstup 0021  
                     aretace@stav 0022          ??_preambleInitialization 0021         smerOtaceniPocitadloHran@A 0021  
       smerOtaceniPocitadloHran@B 0022  
