

Microchip MPLAB XC8 Assembler V2.45 build 20230818022343 
                                                                                               Tue Dec 12 01:50:13 2023

Microchip MPLAB XC8 C Compiler v2.45 (Free license) build 20230818022343 Og1 
     1                           	processor	18F87J11
     2                           	fnconf	rparam,??,?,0
     3                           	pagewidth 120
     4                           	opt	flic
     5                           	psect	cinit,global,reloc=2,class=CODE,delta=1
     6                           	psect	bssCOMRAM,global,class=COMRAM,space=1,delta=1,lowdata,noexec
     7                           	psect	cstackCOMRAM,global,class=COMRAM,space=1,delta=1,lowdata,noexec
     8                           	psect	text0,global,reloc=2,class=CODE,delta=1
     9                           	psect	text1,global,reloc=2,class=CODE,delta=1
    10                           	psect	text2,global,reloc=2,class=CODE,delta=1
    11                           	psect	text3,global,reloc=2,class=CODE,delta=1
    12                           	psect	text4,global,reloc=2,class=CODE,delta=1
    13                           	psect	text5,global,reloc=2,class=CODE,delta=1,group=1
    14                           	psect	text6,global,reloc=2,class=CODE,delta=1,group=1
    15                           	psect	intcodelo,global,reloc=2,class=CODE,delta=1
    16                           	psect	intcode,global,reloc=2,class=CODE,delta=1
    17                           	psect	intcode_body,global,reloc=2,class=CODE,delta=1
    18                           	psect	smallconst,global,reloc=2,class=SMALLCONST,delta=1,noexec
    19                           	psect	intsave_regs,global,class=BIGRAM,space=1,delta=1,noexec
    20                           	psect	rparam,global,class=COMRAM,space=1,delta=1,noexec
    21                           	psect	temp,global,ovrld,common,class=COMRAM,space=1,delta=1
    22                           	psect	config,global,abs,ovrld,class=CONFIG,space=4,delta=1,noexec
    23   000000                     
    24                           ; Generated 23/03/2023 GMT
    25                           ; 
    26                           ; Copyright © 2023, Microchip Technology Inc. and its subsidiaries ("Microchip")
    27                           ; All rights reserved.
    28                           ; 
    29                           ; This software is developed by Microchip Technology Inc. and its subsidiaries ("Microch
      +                          ip").
    30                           ; 
    31                           ; Redistribution and use in source and binary forms, with or without modification, are
    32                           ; permitted provided that the following conditions are met:
    33                           ; 
    34                           ;     1. Redistributions of source code must retain the above copyright notice, this lis
      +                          t of
    35                           ;        conditions and the following disclaimer.
    36                           ; 
    37                           ;     2. Redistributions in binary form must reproduce the above copyright notice, this 
      +                          list
    38                           ;        of conditions and the following disclaimer in the documentation and/or other
    39                           ;        materials provided with the distribution. Publication is not required when
    40                           ;        this file is used in an embedded application.
    41                           ; 
    42                           ;     3. Microchip's name may not be used to endorse or promote products derived from th
      +                          is
    43                           ;        software without specific prior written permission.
    44                           ; 
    45                           ; THIS SOFTWARE IS PROVIDED BY MICROCHIP "AS IS" AND ANY EXPRESS OR IMPLIED WARRANTIES,
    46                           ; INCLUDING, BUT NOT LIMITED TO, THE IMPLIED WARRANTIES OF MERCHANTABILITY AND FITNESS F
      +                          OR
    47                           ; PURPOSE ARE DISCLAIMED.  IN NO EVENT SHALL MICROCHIP BE LIABLE FOR ANY DIRECT, INDIREC
      +                          T,
    48                           ; INCIDENTAL, SPECIAL, EXEMPLARY, OR CONSEQUENTIAL DAMAGES (INCLUDING BUT NOT LIMITED TO
    49                           ; PROCUREMENT OF SUBSTITUTE GOODS OR SERVICES; LOSS OF USE, DATA OR PROFITS; OR BUSINESS
    50                           ; INTERRUPTION) HOWSOEVER CAUSED AND ON ANY THEORY OF LIABILITY, WHETHER IN CONTRACT, ST
      +                          RICT
    51                           ; LIABILITY, OR TORT (INCLUDING NEGLIGENCE OR OTHERWISE) ARISING IN ANY WAY OUT OF THE U
      +                          SE OF
    52                           ; THIS SOFTWARE, EVEN IF ADVISED OF THE POSSIBILITY OF SUCH DAMAGE.
    53                           ; 
    54                           ; 
    55                           ; Code-generator required, PIC18F87J11 Definitions
    56                           ; 
    57                           ; SFR Addresses
    58   000000                     _ADRESL	set	4035
    59   000000                     _ADRESH	set	4036
    60   000000                     _TMR0L	set	4054
    61   000000                     _TMR0H	set	4055
    62   000000                     _ADCON0	set	4034
    63   000000                     _TRISFbits	set	3991
    64   000000                     _T0CONbits	set	4053
    65   000000                     _ADIE	set	31982
    66   000000                     _PORTDbits	set	3971
    67   000000                     _PORTJbits	set	3976
    68   000000                     _T0CON	set	4053
    69   000000                     _INTCON2	set	4081
    70   000000                     _INTCONbits	set	4082
    71   000000                     _TRISD	set	3989
    72   000000                     _OSCTUNEbits	set	3995
    73   000000                     _PIR1bits	set	3998
    74   000000                     _ADCON0bits	set	4034
    75   000000                     _PORTFbits	set	3973
    76   000000                     _PORTH	set	3975
    77   000000                     _IPR1bits	set	3999
    78   000000                     _ADCON1	set	4033
    79   000000                     _RCONbits	set	4048
    80   000000                     _OSCCONbits	set	4051
    81   000000                     _PIE1	set	3997
    82   000000                     _TRISF	set	3991
    83   000000                     _TRISH	set	3993
    84   000000                     _TRISJ	set	3994
    85                           
    86                           ; #config settings
    87                           
    88                           	psect	cinit
    89   00191C                     __pcinit:
    90                           	callstack 0
    91   00191C                     start_initialization:
    92                           	callstack 0
    93   00191C                     __initialization:
    94                           	callstack 0
    95                           
    96                           ; Clear objects allocated to COMRAM (35 bytes)
    97   00191C  EE00  F001         	lfsr	0,__pbssCOMRAM
    98   001920  0E23               	movlw	35
    99   001922                     clear_0:
   100   001922  6AEE               	clrf	postinc0,c
   101   001924  06E8               	decf	wreg,f,c
   102   001926  E1FD               	bnz	clear_0
   103   001928                     end_of_initialization:
   104                           	callstack 0
   105   001928                     __end_of__initialization:
   106                           	callstack 0
   107   001928  903A               	bcf	int$flags,0,c	;clear compiler interrupt flag (level 1)
   108   00192A  923A               	bcf	int$flags,1,c	;clear compiler interrupt flag (level 2)
   109   00192C  0100               	movlb	0
   110   00192E  EF5D  F009         	goto	_main	;jump to C main() function
   111                           
   112                           	psect	bssCOMRAM
   113   000001                     __pbssCOMRAM:
   114                           	callstack 0
   115   000001                     _ADprevod:
   116                           	callstack 0
   117   000001                     	ds	4
   118   000005                     _ADhotovo:
   119                           	callstack 0
   120   000005                     	ds	2
   121   000007                     _citac_ms:
   122                           	callstack 0
   123   000007                     	ds	2
   124   000009                     _casove_preruseni:
   125                           	callstack 0
   126   000009                     	ds	1
   127   00000A                     _pocet:
   128                           	callstack 0
   129   00000A                     	ds	2
   130   00000C                     _stav_filtru_B:
   131                           	callstack 0
   132   00000C                     	ds	2
   133   00000E                     _stav_filtru_A:
   134                           	callstack 0
   135   00000E                     	ds	2
   136   000010                     _stav_koderu:
   137                           	callstack 0
   138   000010                     	ds	2
   139   000012                     _filtrB:
   140                           	callstack 0
   141   000012                     	ds	2
   142   000014                     _filtrA:
   143                           	callstack 0
   144   000014                     	ds	2
   145   000016                     _B:
   146                           	callstack 0
   147   000016                     	ds	2
   148   000018                     _A:
   149                           	callstack 0
   150   000018                     	ds	2
   151   00001A                     _zaaretovane_tlacitko:
   152                           	callstack 0
   153   00001A                     	ds	2
   154   00001C                     _stav_aretace:
   155                           	callstack 0
   156   00001C                     	ds	2
   157   00001E                     _stav_tlacitka:
   158                           	callstack 0
   159   00001E                     	ds	2
   160   000020                     _filtrS4:
   161                           	callstack 0
   162   000020                     	ds	2
   163   000022                     _vstupS4:
   164                           	callstack 0
   165   000022                     	ds	2
   166                           
   167                           	psect	cstackCOMRAM
   168   000024                     __pcstackCOMRAM:
   169                           	callstack 0
   170   000024                     ??_low_isr:
   171                           
   172                           ; 1 bytes @ 0x0
   173   000024                     	ds	7
   174   00002B                     ?___lmul:
   175                           	callstack 0
   176   00002B                     ?___aldiv:
   177                           	callstack 0
   178   00002B                     filtr@vstup:
   179                           	callstack 0
   180   00002B                     aretace@vstup:
   181                           	callstack 0
   182   00002B                     smerOtaceniPocitadloHran@A:
   183                           	callstack 0
   184   00002B                     ___lmul@multiplier:
   185                           	callstack 0
   186   00002B                     ___aldiv@dividend:
   187                           	callstack 0
   188                           
   189                           ; 4 bytes @ 0x7
   190   00002B                     	ds	1
   191   00002C                     filtr@stav:
   192                           	callstack 0
   193   00002C                     aretace@stav:
   194                           	callstack 0
   195   00002C                     smerOtaceniPocitadloHran@B:
   196                           	callstack 0
   197                           
   198                           ; 1 bytes @ 0x8
   199   00002C                     	ds	1
   200   00002D                     filtr@vystup:
   201                           	callstack 0
   202   00002D                     aretace@vystup:
   203                           	callstack 0
   204   00002D                     smerOtaceniPocitadloHran@stav:
   205                           	callstack 0
   206                           
   207                           ; 1 bytes @ 0x9
   208   00002D                     	ds	1
   209   00002E                     ??_filtr:
   210   00002E                     ??_aretace:
   211   00002E                     smerOtaceniPocitadloHran@pocet:
   212                           	callstack 0
   213                           
   214                           ; 1 bytes @ 0xA
   215   00002E                     	ds	1
   216   00002F                     ??_smerOtaceniPocitadloHran:
   217   00002F                     ___lmul@multiplicand:
   218                           	callstack 0
   219   00002F                     ___aldiv@divisor:
   220                           	callstack 0
   221                           
   222                           ; 4 bytes @ 0xB
   223   00002F                     	ds	4
   224   000033                     ___aldiv@counter:
   225                           	callstack 0
   226   000033                     ___lmul@product:
   227                           	callstack 0
   228                           
   229                           ; 4 bytes @ 0xF
   230   000033                     	ds	1
   231   000034                     ___aldiv@sign:
   232                           	callstack 0
   233                           
   234                           ; 1 bytes @ 0x10
   235   000034                     	ds	1
   236   000035                     ___aldiv@quotient:
   237                           	callstack 0
   238                           
   239                           ; 4 bytes @ 0x11
   240   000035                     	ds	4
   241   000039                     ??_main:
   242                           
   243                           ; 1 bytes @ 0x15
   244   000039                     	ds	1
   245                           
   246 ;;
   247 ;;Main: autosize = 0, tempsize = 1, incstack = 0, save=0
   248 ;;
   249 ;; *************** function _main *****************
   250 ;; Defined at:
   251 ;;		line 61 in file "source/main.c"
   252 ;; Parameters:    Size  Location     Type
   253 ;;		None
   254 ;; Auto vars:     Size  Location     Type
   255 ;;		None
   256 ;; Return value:  Size  Location     Type
   257 ;;                  1    wreg      void 
   258 ;; Registers used:
   259 ;;		wreg, fsr2l, fsr2h, status,2, status,0, cstack
   260 ;; Tracked objects:
   261 ;;		On entry : 0/0
   262 ;;		On exit  : 0/0
   263 ;;		Unchanged: 0/0
   264 ;; Data sizes:     COMRAM   BANK0   BANK1   BANK2   BANK3   BANK4   BANK5   BANK6   BANK7   BANK8   BANK9  BANK10  BANK1
      +1  BANK12  BANK13  BANK14  BANK15
   265 ;;      Params:         0       0       0       0       0       0       0       0       0       0       0       0       
      +0       0       0       0       0
   266 ;;      Locals:         0       0       0       0       0       0       0       0       0       0       0       0       
      +0       0       0       0       0
   267 ;;      Temps:          1       0       0       0       0       0       0       0       0       0       0       0       
      +0       0       0       0       0
   268 ;;      Totals:         1       0       0       0       0       0       0       0       0       0       0       0       
      +0       0       0       0       0
   269 ;;Total ram usage:        1 bytes
   270 ;; Hardware stack levels required when called: 3
   271 ;; This function calls:
   272 ;;		___aldiv
   273 ;;		___lmul
   274 ;;		_aretace
   275 ;;		_filtr
   276 ;;		_preambleInitialization
   277 ;;		_smerOtaceniPocitadloHran
   278 ;; This function is called by:
   279 ;;		Startup code after reset
   280 ;; This function uses a non-reentrant model
   281 ;;
   282                           
   283                           	psect	text0
   284   0012BA                     __ptext0:
   285                           	callstack 0
   286   0012BA                     _main:
   287                           	callstack 28
   288   0012BA                     
   289                           ;source/main.c: 64:   preambleInitialization();
   290   0012BA  EC78  F00C         	call	_preambleInitialization	;wreg free
   291   0012BE                     
   292                           ;source/main.c: 69:   T0CON = 0;
   293   0012BE  0E00               	movlw	0
   294   0012C0  6ED5               	movwf	213,c	;volatile
   295   0012C2                     
   296                           ;source/main.c: 70:   T0CONbits.PSA = 1;
   297   0012C2  86D5               	bsf	213,3,c	;volatile
   298   0012C4                     
   299                           ;source/main.c: 71:   TMR0H = 0xD8;
   300   0012C4  0ED8               	movlw	216
   301   0012C6  6ED7               	movwf	215,c	;volatile
   302   0012C8                     
   303                           ;source/main.c: 72:   TMR0L = 0xEF;
   304   0012C8  0EEF               	movlw	239
   305   0012CA  6ED6               	movwf	214,c	;volatile
   306   0012CC                     
   307                           ;source/main.c: 75:   T0CONbits.TMR0ON = 1;
   308   0012CC  8ED5               	bsf	213,7,c	;volatile
   309   0012CE                     
   310                           ;source/main.c: 79:   INTCON2 = 0;
   311   0012CE  0E00               	movlw	0
   312   0012D0  6EF1               	movwf	241,c	;volatile
   313   0012D2                     
   314                           ;source/main.c: 80:   INTCONbits.TMR0IE = 1;
   315   0012D2  8AF2               	bsf	242,5,c	;volatile
   316   0012D4                     
   317                           ;source/main.c: 82:   T0CONbits.TMR0ON = 1;
   318   0012D4  8ED5               	bsf	213,7,c	;volatile
   319   0012D6                     
   320                           ;source/main.c: 84:   INTCONbits.GIEL = 1;
   321   0012D6  8CF2               	bsf	242,6,c	;volatile
   322   0012D8                     
   323                           ;source/main.c: 85:   INTCONbits.GIEH = 1;
   324   0012D8  8EF2               	bsf	242,7,c	;volatile
   325   0012DA                     l1402:
   326                           
   327                           ;source/main.c: 92:   {;source/main.c: 93:       if(casove_preruseni == 1){
   328   0012DA  0409               	decf	_casove_preruseni^0,w,c
   329   0012DC  A4D8               	btfss	status,2,c
   330   0012DE  EF73  F009         	goto	u871
   331   0012E2  EF75  F009         	goto	u870
   332   0012E6                     u871:
   333   0012E6  EFF3  F009         	goto	l1430
   334   0012EA                     u870:
   335   0012EA                     
   336                           ;source/main.c: 94:           casove_preruseni = 0;
   337   0012EA  0E00               	movlw	0
   338   0012EC  6E09               	movwf	_casove_preruseni^0,c
   339                           
   340                           ;source/main.c: 95:           vstupS4 = PORTJbits.RJ7;
   341   0012EE  BE88               	btfsc	136,7,c	;volatile
   342   0012F0  EF7C  F009         	goto	u881
   343   0012F4  EF80  F009         	goto	u880
   344   0012F8                     u881:
   345   0012F8  6A39               	clrf	??_main^0,c
   346   0012FA  2A39               	incf	??_main^0,f,c
   347   0012FC  EF81  F009         	goto	u888
   348   001300                     u880:
   349   001300  6A39               	clrf	??_main^0,c
   350   001302                     u888:
   351   001302  5039               	movf	??_main^0,w,c
   352   001304  6E22               	movwf	_vstupS4^0,c
   353   001306  6A23               	clrf	(_vstupS4+1)^0,c
   354   001308                     
   355                           ;source/main.c: 96:           filtr(&vstupS4, &stav_tlacitka, &filtrS4);
   356   001308  0E22               	movlw	low _vstupS4
   357   00130A  6E2B               	movwf	filtr@vstup^0,c
   358   00130C  0E1E               	movlw	low _stav_tlacitka
   359   00130E  6E2C               	movwf	filtr@stav^0,c
   360   001310  0E20               	movlw	low _filtrS4
   361   001312  6E2D               	movwf	filtr@vystup^0,c
   362   001314  EC77  F00A         	call	_filtr	;wreg free
   363   001318                     
   364                           ;source/main.c: 97:           aretace(&filtrS4, &stav_aretace, &zaaretovane_tlacitko);
   365   001318  0E20               	movlw	low _filtrS4
   366   00131A  6E2B               	movwf	aretace@vstup^0,c
   367   00131C  0E1C               	movlw	low _stav_aretace
   368   00131E  6E2C               	movwf	aretace@stav^0,c
   369   001320  0E1A               	movlw	low _zaaretovane_tlacitko
   370   001322  6E2D               	movwf	aretace@vystup^0,c
   371   001324  ECC1  F00B         	call	_aretace	;wreg free
   372   001328                     
   373                           ;source/main.c: 98:           PORTDbits.RD7 = zaaretovane_tlacitko;
   374   001328  B01A               	btfsc	_zaaretovane_tlacitko^0,0,c
   375   00132A  D002               	bra	u895
   376   00132C  9E83               	bcf	131,7,c	;volatile
   377   00132E  D001               	bra	u896
   378   001330                     u895:
   379   001330  8E83               	bsf	131,7,c	;volatile
   380   001332                     u896:
   381                           
   382                           ;source/main.c: 100:           A = PORTJbits.RJ0;
   383   001332  B088               	btfsc	136,0,c	;volatile
   384   001334  EF9E  F009         	goto	u901
   385   001338  EFA2  F009         	goto	u900
   386   00133C                     u901:
   387   00133C  6A39               	clrf	??_main^0,c
   388   00133E  2A39               	incf	??_main^0,f,c
   389   001340  EFA3  F009         	goto	u908
   390   001344                     u900:
   391   001344  6A39               	clrf	??_main^0,c
   392   001346                     u908:
   393   001346  5039               	movf	??_main^0,w,c
   394   001348  6E18               	movwf	_A^0,c
   395   00134A  6A19               	clrf	(_A+1)^0,c
   396   00134C                     
   397                           ;source/main.c: 101:           filtr(&A, &stav_filtru_A, &filtrA);
   398   00134C  0E18               	movlw	low _A
   399   00134E  6E2B               	movwf	filtr@vstup^0,c
   400   001350  0E0E               	movlw	low _stav_filtru_A
   401   001352  6E2C               	movwf	filtr@stav^0,c
   402   001354  0E14               	movlw	low _filtrA
   403   001356  6E2D               	movwf	filtr@vystup^0,c
   404   001358  EC77  F00A         	call	_filtr	;wreg free
   405   00135C                     
   406                           ;source/main.c: 102:           B = PORTJbits.RJ1;
   407   00135C  B288               	btfsc	136,1,c	;volatile
   408   00135E  EFB3  F009         	goto	u911
   409   001362  EFB7  F009         	goto	u910
   410   001366                     u911:
   411   001366  6A39               	clrf	??_main^0,c
   412   001368  2A39               	incf	??_main^0,f,c
   413   00136A  EFB8  F009         	goto	u918
   414   00136E                     u910:
   415   00136E  6A39               	clrf	??_main^0,c
   416   001370                     u918:
   417   001370  5039               	movf	??_main^0,w,c
   418   001372  6E16               	movwf	_B^0,c
   419   001374  6A17               	clrf	(_B+1)^0,c
   420                           
   421                           ;source/main.c: 103:           filtr(&B, &stav_filtru_B, &filtrB);
   422   001376  0E16               	movlw	low _B
   423   001378  6E2B               	movwf	filtr@vstup^0,c
   424   00137A  0E0C               	movlw	low _stav_filtru_B
   425   00137C  6E2C               	movwf	filtr@stav^0,c
   426   00137E  0E12               	movlw	low _filtrB
   427   001380  6E2D               	movwf	filtr@vystup^0,c
   428   001382  EC77  F00A         	call	_filtr	;wreg free
   429   001386                     
   430                           ;source/main.c: 104:           PORTDbits.RD6 = filtrA;
   431   001386  B014               	btfsc	_filtrA^0,0,c
   432   001388  D002               	bra	u925
   433   00138A  9C83               	bcf	131,6,c	;volatile
   434   00138C  D001               	bra	u926
   435   00138E                     u925:
   436   00138E  8C83               	bsf	131,6,c	;volatile
   437   001390                     u926:
   438   001390                     
   439                           ;source/main.c: 105:           PORTDbits.RD5 = filtrB;
   440   001390  B012               	btfsc	_filtrB^0,0,c
   441   001392  D002               	bra	u935
   442   001394  9A83               	bcf	131,5,c	;volatile
   443   001396  D001               	bra	u936
   444   001398                     u935:
   445   001398  8A83               	bsf	131,5,c	;volatile
   446   00139A                     u936:
   447                           
   448                           ;source/main.c: 106:           smerOtaceniPocitadloHran(&filtrA, &filtrB, &stav_koderu, 
      +                          &pocet);
   449   00139A  0E14               	movlw	low _filtrA
   450   00139C  6E2B               	movwf	smerOtaceniPocitadloHran@A^0,c
   451   00139E  0E12               	movlw	low _filtrB
   452   0013A0  6E2C               	movwf	smerOtaceniPocitadloHran@B^0,c
   453   0013A2  0E10               	movlw	low _stav_koderu
   454   0013A4  6E2D               	movwf	smerOtaceniPocitadloHran@stav^0,c
   455   0013A6  0E0A               	movlw	low _pocet
   456   0013A8  6E2E               	movwf	smerOtaceniPocitadloHran@pocet^0,c
   457   0013AA  EC01  F008         	call	_smerOtaceniPocitadloHran	;wreg free
   458   0013AE                     
   459                           ;source/main.c: 107:           PORTH = pocet;
   460   0013AE  C00A  FF87         	movff	_pocet,3975	;volatile
   461   0013B2                     
   462                           ;source/main.c: 108:           if (pocet == 0){
   463   0013B2  500A               	movf	_pocet^0,w,c
   464   0013B4  100B               	iorwf	(_pocet+1)^0,w,c
   465   0013B6  A4D8               	btfss	status,2,c
   466   0013B8  EFE0  F009         	goto	u941
   467   0013BC  EFE2  F009         	goto	u940
   468   0013C0                     u941:
   469   0013C0  EFE5  F009         	goto	l1426
   470   0013C4                     u940:
   471   0013C4                     
   472                           ;source/main.c: 109:               PORTFbits.RF2 = 1;
   473   0013C4  8485               	bsf	133,2,c	;volatile
   474                           
   475                           ;source/main.c: 110:           }
   476   0013C6  EFF3  F009         	goto	l1430
   477   0013CA                     l1426:
   478   0013CA  280A               	incf	_pocet^0,w,c
   479   0013CC  100B               	iorwf	(_pocet+1)^0,w,c
   480   0013CE  A4D8               	btfss	status,2,c
   481   0013D0  EFEC  F009         	goto	u951
   482   0013D4  EFEE  F009         	goto	u950
   483   0013D8                     u951:
   484   0013D8  EFF1  F009         	goto	l82
   485   0013DC                     u950:
   486   0013DC                     
   487                           ;source/main.c: 112:               PORTFbits.RF1 = 1;
   488   0013DC  8285               	bsf	133,1,c	;volatile
   489                           
   490                           ;source/main.c: 113:           }
   491   0013DE  EFF3  F009         	goto	l1430
   492   0013E2                     l82:
   493                           
   494                           ;source/main.c: 115:               PORTFbits.RF2 = 0;
   495   0013E2  9485               	bcf	133,2,c	;volatile
   496                           
   497                           ;source/main.c: 116:               PORTFbits.RF1 = 0;
   498   0013E4  9285               	bcf	133,1,c	;volatile
   499   0013E6                     l1430:
   500                           
   501                           ;source/main.c: 120:       if(ADhotovo == 1){
   502   0013E6  0405               	decf	_ADhotovo^0,w,c
   503   0013E8  1006               	iorwf	(_ADhotovo+1)^0,w,c
   504   0013EA  A4D8               	btfss	status,2,c
   505   0013EC  EFFA  F009         	goto	u961
   506   0013F0  EFFC  F009         	goto	u960
   507   0013F4                     u961:
   508   0013F4  EF6D  F009         	goto	l1402
   509   0013F8                     u960:
   510   0013F8                     
   511                           ;source/main.c: 121:           if(ADprevod > 1000){
   512   0013F8  BE04               	btfsc	(_ADprevod+3)^0,7,c
   513   0013FA  EF0B  F00A         	goto	u971
   514   0013FE  5004               	movf	(_ADprevod+3)^0,w,c
   515   001400  1003               	iorwf	(_ADprevod+2)^0,w,c
   516   001402  E10B               	bnz	u970
   517   001404  0EE9               	movlw	233
   518   001406  5C01               	subwf	_ADprevod^0,w,c
   519   001408  0E03               	movlw	3
   520   00140A  5802               	subwfb	(_ADprevod+1)^0,w,c
   521   00140C  A0D8               	btfss	status,0,c
   522   00140E  EF0B  F00A         	goto	u971
   523   001412  EF0D  F00A         	goto	u970
   524   001416                     u971:
   525   001416  EF17  F00A         	goto	l1436
   526   00141A                     u970:
   527   00141A                     
   528                           ;source/main.c: 122:               ADprevod = 1000;
   529   00141A  0EE8               	movlw	232
   530   00141C  6E01               	movwf	_ADprevod^0,c
   531   00141E  0E03               	movlw	3
   532   001420  6E02               	movwf	(_ADprevod+1)^0,c
   533   001422  0E00               	movlw	0
   534   001424  6E03               	movwf	(_ADprevod+2)^0,c
   535   001426  0E00               	movlw	0
   536   001428  6E04               	movwf	(_ADprevod+3)^0,c
   537                           
   538                           ;source/main.c: 123:           }
   539   00142A  EF2F  F00A         	goto	l1440
   540   00142E                     l1436:
   541   00142E  BE04               	btfsc	(_ADprevod+3)^0,7,c
   542   001430  EF27  F00A         	goto	u980
   543   001434  5004               	movf	(_ADprevod+3)^0,w,c
   544   001436  1003               	iorwf	(_ADprevod+2)^0,w,c
   545   001438  1002               	iorwf	(_ADprevod+1)^0,w,c
   546   00143A  E107               	bnz	u981
   547   00143C  0E32               	movlw	50
   548   00143E  5C01               	subwf	_ADprevod^0,w,c
   549   001440  B0D8               	btfsc	status,0,c
   550   001442  EF25  F00A         	goto	u981
   551   001446  EF27  F00A         	goto	u980
   552   00144A                     u981:
   553   00144A  EF2F  F00A         	goto	l1440
   554   00144E                     u980:
   555   00144E                     
   556                           ;source/main.c: 125:               ADprevod = 50;
   557   00144E  0E32               	movlw	50
   558   001450  6E01               	movwf	_ADprevod^0,c
   559   001452  0E00               	movlw	0
   560   001454  6E02               	movwf	(_ADprevod+1)^0,c
   561   001456  0E00               	movlw	0
   562   001458  6E03               	movwf	(_ADprevod+2)^0,c
   563   00145A  0E00               	movlw	0
   564   00145C  6E04               	movwf	(_ADprevod+3)^0,c
   565   00145E                     l1440:
   566                           
   567                           ;source/main.c: 127:           ADprevod = ADprevod - 50;
   568   00145E  0ECE               	movlw	206
   569   001460  2401               	addwf	_ADprevod^0,w,c
   570   001462  6E01               	movwf	_ADprevod^0,c
   571   001464  0EFF               	movlw	255
   572   001466  2002               	addwfc	(_ADprevod+1)^0,w,c
   573   001468  6E02               	movwf	(_ADprevod+1)^0,c
   574   00146A  0EFF               	movlw	255
   575   00146C  2003               	addwfc	(_ADprevod+2)^0,w,c
   576   00146E  6E03               	movwf	(_ADprevod+2)^0,c
   577   001470  0EFF               	movlw	255
   578   001472  2004               	addwfc	(_ADprevod+3)^0,w,c
   579   001474  6E04               	movwf	(_ADprevod+3)^0,c
   580   001476                     
   581                           ;source/main.c: 128:           ADprevod = ADprevod * 255;
   582   001476  C001  F02B         	movff	_ADprevod,___lmul@multiplier
   583   00147A  C002  F02C         	movff	_ADprevod+1,___lmul@multiplier+1
   584   00147E  C003  F02D         	movff	_ADprevod+2,___lmul@multiplier+2
   585   001482  C004  F02E         	movff	_ADprevod+3,___lmul@multiplier+3
   586   001486  0EFF               	movlw	255
   587   001488  6E2F               	movwf	___lmul@multiplicand^0,c
   588   00148A  0E00               	movlw	0
   589   00148C  6E30               	movwf	(___lmul@multiplicand+1)^0,c
   590   00148E  0E00               	movlw	0
   591   001490  6E31               	movwf	(___lmul@multiplicand+2)^0,c
   592   001492  0E00               	movlw	0
   593   001494  6E32               	movwf	(___lmul@multiplicand+3)^0,c
   594   001496  EC43  F00C         	call	___lmul	;wreg free
   595   00149A  C02B  F001         	movff	?___lmul,_ADprevod
   596   00149E  C02C  F002         	movff	?___lmul+1,_ADprevod+1
   597   0014A2  C02D  F003         	movff	?___lmul+2,_ADprevod+2
   598   0014A6  C02E  F004         	movff	?___lmul+3,_ADprevod+3
   599   0014AA                     
   600                           ;source/main.c: 129:           ADprevod = ADprevod / 950;
   601   0014AA  C001  F02B         	movff	_ADprevod,___aldiv@dividend
   602   0014AE  C002  F02C         	movff	_ADprevod+1,___aldiv@dividend+1
   603   0014B2  C003  F02D         	movff	_ADprevod+2,___aldiv@dividend+2
   604   0014B6  C004  F02E         	movff	_ADprevod+3,___aldiv@dividend+3
   605   0014BA  0EB6               	movlw	182
   606   0014BC  6E2F               	movwf	___aldiv@divisor^0,c
   607   0014BE  0E03               	movlw	3
   608   0014C0  6E30               	movwf	(___aldiv@divisor+1)^0,c
   609   0014C2  0E00               	movlw	0
   610   0014C4  6E31               	movwf	(___aldiv@divisor+2)^0,c
   611   0014C6  0E00               	movlw	0
   612   0014C8  6E32               	movwf	(___aldiv@divisor+3)^0,c
   613   0014CA  EC3B  F00B         	call	___aldiv	;wreg free
   614   0014CE  C02B  F001         	movff	?___aldiv,_ADprevod
   615   0014D2  C02C  F002         	movff	?___aldiv+1,_ADprevod+1
   616   0014D6  C02D  F003         	movff	?___aldiv+2,_ADprevod+2
   617   0014DA  C02E  F004         	movff	?___aldiv+3,_ADprevod+3
   618   0014DE                     
   619                           ;source/main.c: 131:           ADhotovo = 0;
   620   0014DE  0E00               	movlw	0
   621   0014E0  6E06               	movwf	(_ADhotovo+1)^0,c
   622   0014E2  0E00               	movlw	0
   623   0014E4  6E05               	movwf	_ADhotovo^0,c
   624   0014E6  EF6D  F009         	goto	l1402
   625   0014EA  EF7A  F000         	goto	start
   626   0014EE                     __end_of_main:
   627                           	callstack 0
   628                           
   629 ;; *************** function _smerOtaceniPocitadloHran *****************
   630 ;; Defined at:
   631 ;;		line 14 in file "source/smerOtaceniPocitadloHran.c"
   632 ;; Parameters:    Size  Location     Type
   633 ;;  A               1    7[COMRAM] PTR int 
   634 ;;		 -> filtrA(2), 
   635 ;;  B               1    8[COMRAM] PTR int 
   636 ;;		 -> filtrB(2), 
   637 ;;  stav            1    9[COMRAM] PTR int 
   638 ;;		 -> stav_koderu(2), 
   639 ;;  pocet           1   10[COMRAM] PTR int 
   640 ;;		 -> pocet(2), 
   641 ;; Auto vars:     Size  Location     Type
   642 ;;		None
   643 ;; Return value:  Size  Location     Type
   644 ;;                  1    wreg      void 
   645 ;; Registers used:
   646 ;;		wreg, fsr2l, fsr2h, status,2, status,0
   647 ;; Tracked objects:
   648 ;;		On entry : 0/0
   649 ;;		On exit  : 0/0
   650 ;;		Unchanged: 0/0
   651 ;; Data sizes:     COMRAM   BANK0   BANK1   BANK2   BANK3   BANK4   BANK5   BANK6   BANK7   BANK8   BANK9  BANK10  BANK1
      +1  BANK12  BANK13  BANK14  BANK15
   652 ;;      Params:         4       0       0       0       0       0       0       0       0       0       0       0       
      +0       0       0       0       0
   653 ;;      Locals:         0       0       0       0       0       0       0       0       0       0       0       0       
      +0       0       0       0       0
   654 ;;      Temps:          4       0       0       0       0       0       0       0       0       0       0       0       
      +0       0       0       0       0
   655 ;;      Totals:         8       0       0       0       0       0       0       0       0       0       0       0       
      +0       0       0       0       0
   656 ;;Total ram usage:        8 bytes
   657 ;; Hardware stack levels used: 1
   658 ;; Hardware stack levels required when called: 2
   659 ;; This function calls:
   660 ;;		Nothing
   661 ;; This function is called by:
   662 ;;		_main
   663 ;; This function uses a non-reentrant model
   664 ;;
   665                           
   666                           	psect	text1
   667   001002                     __ptext1:
   668                           	callstack 0
   669   001002                     _smerOtaceniPocitadloHran:
   670                           	callstack 28
   671   001002                     
   672                           ;source/smerOtaceniPocitadloHran.c: 15:     switch (*stav){
   673   001002  EF3B  F009         	goto	l1320
   674   001006                     l1258:
   675                           
   676                           ;source/smerOtaceniPocitadloHran.c: 17:             if (*A == 1 && *B==0){
   677   001006  502B               	movf	smerOtaceniPocitadloHran@A^0,w,c
   678   001008  6ED9               	movwf	fsr2l,c
   679   00100A  6ADA               	clrf	fsr2h,c
   680   00100C  04DE               	decf	postinc2,w,c
   681   00100E  10DE               	iorwf	postinc2,w,c
   682   001010  A4D8               	btfss	status,2,c
   683   001012  EF0D  F008         	goto	u611
   684   001016  EF0F  F008         	goto	u610
   685   00101A                     u611:
   686   00101A  EF4B  F008         	goto	l1270
   687   00101E                     u610:
   688   00101E  502C               	movf	smerOtaceniPocitadloHran@B^0,w,c
   689   001020  6ED9               	movwf	fsr2l,c
   690   001022  6ADA               	clrf	fsr2h,c
   691   001024  50DE               	movf	postinc2,w,c
   692   001026  10DE               	iorwf	postinc2,w,c
   693   001028  A4D8               	btfss	status,2,c
   694   00102A  EF19  F008         	goto	u621
   695   00102E  EF1B  F008         	goto	u620
   696   001032                     u621:
   697   001032  EF4B  F008         	goto	l1270
   698   001036                     u620:
   699   001036                     
   700                           ;source/smerOtaceniPocitadloHran.c: 18:                 if (*pocet == 255){
   701   001036  502E               	movf	smerOtaceniPocitadloHran@pocet^0,w,c
   702   001038  6ED9               	movwf	fsr2l,c
   703   00103A  6ADA               	clrf	fsr2h,c
   704   00103C  28DE               	incf	postinc2,w,c
   705   00103E  10DE               	iorwf	postinc2,w,c
   706   001040  A4D8               	btfss	status,2,c
   707   001042  EF25  F008         	goto	u631
   708   001046  EF27  F008         	goto	u630
   709   00104A                     u631:
   710   00104A  EF30  F008         	goto	l1266
   711   00104E                     u630:
   712   00104E                     
   713                           ;source/smerOtaceniPocitadloHran.c: 19:                     *pocet=255;
   714   00104E  502E               	movf	smerOtaceniPocitadloHran@pocet^0,w,c
   715   001050  6ED9               	movwf	fsr2l,c
   716   001052  6ADA               	clrf	fsr2h,c
   717   001054  0EFF               	movlw	255
   718   001056  6EDE               	movwf	postinc2,c
   719   001058  0E00               	movlw	0
   720   00105A  6EDD               	movwf	postdec2,c
   721                           
   722                           ;source/smerOtaceniPocitadloHran.c: 20:                 }
   723   00105C  EF42  F008         	goto	l1268
   724   001060                     l1266:
   725                           
   726                           ;source/smerOtaceniPocitadloHran.c: 22:                     *pocet = *pocet +1;
   727   001060  502E               	movf	smerOtaceniPocitadloHran@pocet^0,w,c
   728   001062  6ED9               	movwf	fsr2l,c
   729   001064  6ADA               	clrf	fsr2h,c
   730   001066  CFDE F02F          	movff	postinc2,??_smerOtaceniPocitadloHran
   731   00106A  CFDD F030          	movff	postdec2,??_smerOtaceniPocitadloHran+1
   732   00106E  0E01               	movlw	1
   733   001070  262F               	addwf	??_smerOtaceniPocitadloHran^0,f,c
   734   001072  0E00               	movlw	0
   735   001074  2230               	addwfc	(??_smerOtaceniPocitadloHran+1)^0,f,c
   736   001076  502E               	movf	smerOtaceniPocitadloHran@pocet^0,w,c
   737   001078  6ED9               	movwf	fsr2l,c
   738   00107A  6ADA               	clrf	fsr2h,c
   739   00107C  C02F  FFDE         	movff	??_smerOtaceniPocitadloHran,postinc2
   740   001080  C030  FFDD         	movff	??_smerOtaceniPocitadloHran+1,postdec2
   741   001084                     l1268:
   742                           
   743                           ;source/smerOtaceniPocitadloHran.c: 24:                 *stav = ks1;
   744   001084  502D               	movf	smerOtaceniPocitadloHran@stav^0,w,c
   745   001086  6ED9               	movwf	fsr2l,c
   746   001088  6ADA               	clrf	fsr2h,c
   747   00108A  0E01               	movlw	1
   748   00108C  6EDE               	movwf	postinc2,c
   749   00108E  0E00               	movlw	0
   750   001090  6EDD               	movwf	postdec2,c
   751                           
   752                           ;source/smerOtaceniPocitadloHran.c: 25:             }
   753   001092  EF5C  F009         	goto	l200
   754   001096                     l1270:
   755   001096  502B               	movf	smerOtaceniPocitadloHran@A^0,w,c
   756   001098  6ED9               	movwf	fsr2l,c
   757   00109A  6ADA               	clrf	fsr2h,c
   758   00109C  50DE               	movf	postinc2,w,c
   759   00109E  10DE               	iorwf	postinc2,w,c
   760   0010A0  A4D8               	btfss	status,2,c
   761   0010A2  EF55  F008         	goto	u641
   762   0010A6  EF57  F008         	goto	u640
   763   0010AA                     u641:
   764   0010AA  EF5C  F009         	goto	l200
   765   0010AE                     u640:
   766   0010AE  502C               	movf	smerOtaceniPocitadloHran@B^0,w,c
   767   0010B0  6ED9               	movwf	fsr2l,c
   768   0010B2  6ADA               	clrf	fsr2h,c
   769   0010B4  04DE               	decf	postinc2,w,c
   770   0010B6  10DE               	iorwf	postinc2,w,c
   771   0010B8  A4D8               	btfss	status,2,c
   772   0010BA  EF61  F008         	goto	u651
   773   0010BE  EF63  F008         	goto	u650
   774   0010C2                     u651:
   775   0010C2  EF5C  F009         	goto	l200
   776   0010C6                     u650:
   777   0010C6                     
   778                           ;source/smerOtaceniPocitadloHran.c: 27:                 if (*pocet == 0){
   779   0010C6  502E               	movf	smerOtaceniPocitadloHran@pocet^0,w,c
   780   0010C8  6ED9               	movwf	fsr2l,c
   781   0010CA  6ADA               	clrf	fsr2h,c
   782   0010CC  50DE               	movf	postinc2,w,c
   783   0010CE  10DE               	iorwf	postinc2,w,c
   784   0010D0  A4D8               	btfss	status,2,c
   785   0010D2  EF6D  F008         	goto	u661
   786   0010D6  EF6F  F008         	goto	u660
   787   0010DA                     u661:
   788   0010DA  EF76  F008         	goto	l1278
   789   0010DE                     u660:
   790   0010DE                     
   791                           ;source/smerOtaceniPocitadloHran.c: 28:                     *pocet=0;
   792   0010DE  502E               	movf	smerOtaceniPocitadloHran@pocet^0,w,c
   793   0010E0  6ED9               	movwf	fsr2l,c
   794   0010E2  6ADA               	clrf	fsr2h,c
   795   0010E4  6ADE               	clrf	postinc2,c
   796   0010E6  6ADD               	clrf	postdec2,c
   797                           
   798                           ;source/smerOtaceniPocitadloHran.c: 29:                 }
   799   0010E8  EF8A  F008         	goto	l1280
   800   0010EC                     l1278:
   801                           
   802                           ;source/smerOtaceniPocitadloHran.c: 31:                     *pocet = *pocet - 1;
   803   0010EC  502E               	movf	smerOtaceniPocitadloHran@pocet^0,w,c
   804   0010EE  6ED9               	movwf	fsr2l,c
   805   0010F0  6ADA               	clrf	fsr2h,c
   806   0010F2  CFDE F02F          	movff	postinc2,??_smerOtaceniPocitadloHran
   807   0010F6  CFDD F030          	movff	postdec2,??_smerOtaceniPocitadloHran+1
   808   0010FA  0EFF               	movlw	255
   809   0010FC  242F               	addwf	??_smerOtaceniPocitadloHran^0,w,c
   810   0010FE  6E31               	movwf	(??_smerOtaceniPocitadloHran+2)^0,c
   811   001100  0EFF               	movlw	255
   812   001102  2030               	addwfc	(??_smerOtaceniPocitadloHran+1)^0,w,c
   813   001104  6E32               	movwf	(??_smerOtaceniPocitadloHran+3)^0,c
   814   001106  502E               	movf	smerOtaceniPocitadloHran@pocet^0,w,c
   815   001108  6ED9               	movwf	fsr2l,c
   816   00110A  6ADA               	clrf	fsr2h,c
   817   00110C  C031  FFDE         	movff	??_smerOtaceniPocitadloHran+2,postinc2
   818   001110  C032  FFDD         	movff	??_smerOtaceniPocitadloHran+3,postdec2
   819   001114                     l1280:
   820                           
   821                           ;source/smerOtaceniPocitadloHran.c: 33:                 *stav = ks3;
   822   001114  502D               	movf	smerOtaceniPocitadloHran@stav^0,w,c
   823   001116  6ED9               	movwf	fsr2l,c
   824   001118  6ADA               	clrf	fsr2h,c
   825   00111A  0E03               	movlw	3
   826   00111C  6EDE               	movwf	postinc2,c
   827   00111E  0E00               	movlw	0
   828   001120  6EDD               	movwf	postdec2,c
   829   001122  EF5C  F009         	goto	l200
   830   001126                     l1282:
   831                           
   832                           ;source/smerOtaceniPocitadloHran.c: 39:             if (*A == 1 && *B==1){
   833   001126  502B               	movf	smerOtaceniPocitadloHran@A^0,w,c
   834   001128  6ED9               	movwf	fsr2l,c
   835   00112A  6ADA               	clrf	fsr2h,c
   836   00112C  04DE               	decf	postinc2,w,c
   837   00112E  10DE               	iorwf	postinc2,w,c
   838   001130  A4D8               	btfss	status,2,c
   839   001132  EF9D  F008         	goto	u671
   840   001136  EF9F  F008         	goto	u670
   841   00113A                     u671:
   842   00113A  EFB4  F008         	goto	l1288
   843   00113E                     u670:
   844   00113E  502C               	movf	smerOtaceniPocitadloHran@B^0,w,c
   845   001140  6ED9               	movwf	fsr2l,c
   846   001142  6ADA               	clrf	fsr2h,c
   847   001144  04DE               	decf	postinc2,w,c
   848   001146  10DE               	iorwf	postinc2,w,c
   849   001148  A4D8               	btfss	status,2,c
   850   00114A  EFA9  F008         	goto	u681
   851   00114E  EFAB  F008         	goto	u680
   852   001152                     u681:
   853   001152  EFB4  F008         	goto	l1288
   854   001156                     u680:
   855   001156                     l1286:
   856                           
   857                           ;source/smerOtaceniPocitadloHran.c: 40:                 *stav = ks2;
   858   001156  502D               	movf	smerOtaceniPocitadloHran@stav^0,w,c
   859   001158  6ED9               	movwf	fsr2l,c
   860   00115A  6ADA               	clrf	fsr2h,c
   861   00115C  0E02               	movlw	2
   862   00115E  6EDE               	movwf	postinc2,c
   863   001160  0E00               	movlw	0
   864   001162  6EDD               	movwf	postdec2,c
   865                           
   866                           ;source/smerOtaceniPocitadloHran.c: 41:             }
   867   001164  EF5C  F009         	goto	l200
   868   001168                     l1288:
   869   001168  502B               	movf	smerOtaceniPocitadloHran@A^0,w,c
   870   00116A  6ED9               	movwf	fsr2l,c
   871   00116C  6ADA               	clrf	fsr2h,c
   872   00116E  50DE               	movf	postinc2,w,c
   873   001170  10DE               	iorwf	postinc2,w,c
   874   001172  A4D8               	btfss	status,2,c
   875   001174  EFBE  F008         	goto	u691
   876   001178  EFC0  F008         	goto	u690
   877   00117C                     u691:
   878   00117C  EF5C  F009         	goto	l200
   879   001180                     u690:
   880   001180  502C               	movf	smerOtaceniPocitadloHran@B^0,w,c
   881   001182  6ED9               	movwf	fsr2l,c
   882   001184  6ADA               	clrf	fsr2h,c
   883   001186  50DE               	movf	postinc2,w,c
   884   001188  10DE               	iorwf	postinc2,w,c
   885   00118A  A4D8               	btfss	status,2,c
   886   00118C  EFCA  F008         	goto	u701
   887   001190  EFCC  F008         	goto	u700
   888   001194                     u701:
   889   001194  EF5C  F009         	goto	l200
   890   001198                     u700:
   891   001198                     l1292:
   892                           
   893                           ;source/smerOtaceniPocitadloHran.c: 43:                *stav = ks0;
   894   001198  502D               	movf	smerOtaceniPocitadloHran@stav^0,w,c
   895   00119A  6ED9               	movwf	fsr2l,c
   896   00119C  6ADA               	clrf	fsr2h,c
   897   00119E  6ADE               	clrf	postinc2,c
   898   0011A0  6ADD               	clrf	postdec2,c
   899   0011A2  EF5C  F009         	goto	l200
   900   0011A6                     l1294:
   901                           
   902                           ;source/smerOtaceniPocitadloHran.c: 49:             if (*A == 0 && *B==1){
   903   0011A6  502B               	movf	smerOtaceniPocitadloHran@A^0,w,c
   904   0011A8  6ED9               	movwf	fsr2l,c
   905   0011AA  6ADA               	clrf	fsr2h,c
   906   0011AC  50DE               	movf	postinc2,w,c
   907   0011AE  10DE               	iorwf	postinc2,w,c
   908   0011B0  A4D8               	btfss	status,2,c
   909   0011B2  EFDD  F008         	goto	u711
   910   0011B6  EFDF  F008         	goto	u710
   911   0011BA                     u711:
   912   0011BA  EFED  F008         	goto	l1300
   913   0011BE                     u710:
   914   0011BE  502C               	movf	smerOtaceniPocitadloHran@B^0,w,c
   915   0011C0  6ED9               	movwf	fsr2l,c
   916   0011C2  6ADA               	clrf	fsr2h,c
   917   0011C4  04DE               	decf	postinc2,w,c
   918   0011C6  10DE               	iorwf	postinc2,w,c
   919   0011C8  A4D8               	btfss	status,2,c
   920   0011CA  EFE9  F008         	goto	u721
   921   0011CE  EFEB  F008         	goto	u720
   922   0011D2                     u721:
   923   0011D2  EFED  F008         	goto	l1300
   924   0011D6                     u720:
   925   0011D6  EF8A  F008         	goto	l1280
   926   0011DA                     l1300:
   927   0011DA  502B               	movf	smerOtaceniPocitadloHran@A^0,w,c
   928   0011DC  6ED9               	movwf	fsr2l,c
   929   0011DE  6ADA               	clrf	fsr2h,c
   930   0011E0  04DE               	decf	postinc2,w,c
   931   0011E2  10DE               	iorwf	postinc2,w,c
   932   0011E4  A4D8               	btfss	status,2,c
   933   0011E6  EFF7  F008         	goto	u731
   934   0011EA  EFF9  F008         	goto	u730
   935   0011EE                     u731:
   936   0011EE  EF5C  F009         	goto	l200
   937   0011F2                     u730:
   938   0011F2  502C               	movf	smerOtaceniPocitadloHran@B^0,w,c
   939   0011F4  6ED9               	movwf	fsr2l,c
   940   0011F6  6ADA               	clrf	fsr2h,c
   941   0011F8  50DE               	movf	postinc2,w,c
   942   0011FA  10DE               	iorwf	postinc2,w,c
   943   0011FC  A4D8               	btfss	status,2,c
   944   0011FE  EF03  F009         	goto	u741
   945   001202  EF05  F009         	goto	u740
   946   001206                     u741:
   947   001206  EF5C  F009         	goto	l200
   948   00120A                     u740:
   949   00120A  EF42  F008         	goto	l1268
   950   00120E                     l1306:
   951                           
   952                           ;source/smerOtaceniPocitadloHran.c: 59:             if (*A == 0 && *B==0){
   953   00120E  502B               	movf	smerOtaceniPocitadloHran@A^0,w,c
   954   001210  6ED9               	movwf	fsr2l,c
   955   001212  6ADA               	clrf	fsr2h,c
   956   001214  50DE               	movf	postinc2,w,c
   957   001216  10DE               	iorwf	postinc2,w,c
   958   001218  A4D8               	btfss	status,2,c
   959   00121A  EF11  F009         	goto	u751
   960   00121E  EF13  F009         	goto	u750
   961   001222                     u751:
   962   001222  EF21  F009         	goto	l1312
   963   001226                     u750:
   964   001226  502C               	movf	smerOtaceniPocitadloHran@B^0,w,c
   965   001228  6ED9               	movwf	fsr2l,c
   966   00122A  6ADA               	clrf	fsr2h,c
   967   00122C  50DE               	movf	postinc2,w,c
   968   00122E  10DE               	iorwf	postinc2,w,c
   969   001230  A4D8               	btfss	status,2,c
   970   001232  EF1D  F009         	goto	u761
   971   001236  EF1F  F009         	goto	u760
   972   00123A                     u761:
   973   00123A  EF21  F009         	goto	l1312
   974   00123E                     u760:
   975   00123E  EFCC  F008         	goto	l1292
   976   001242                     l1312:
   977   001242  502B               	movf	smerOtaceniPocitadloHran@A^0,w,c
   978   001244  6ED9               	movwf	fsr2l,c
   979   001246  6ADA               	clrf	fsr2h,c
   980   001248  04DE               	decf	postinc2,w,c
   981   00124A  10DE               	iorwf	postinc2,w,c
   982   00124C  A4D8               	btfss	status,2,c
   983   00124E  EF2B  F009         	goto	u771
   984   001252  EF2D  F009         	goto	u770
   985   001256                     u771:
   986   001256  EF5C  F009         	goto	l200
   987   00125A                     u770:
   988   00125A  502C               	movf	smerOtaceniPocitadloHran@B^0,w,c
   989   00125C  6ED9               	movwf	fsr2l,c
   990   00125E  6ADA               	clrf	fsr2h,c
   991   001260  04DE               	decf	postinc2,w,c
   992   001262  10DE               	iorwf	postinc2,w,c
   993   001264  A4D8               	btfss	status,2,c
   994   001266  EF37  F009         	goto	u781
   995   00126A  EF39  F009         	goto	u780
   996   00126E                     u781:
   997   00126E  EF5C  F009         	goto	l200
   998   001272                     u780:
   999   001272  EFAB  F008         	goto	l1286
  1000   001276                     l1320:
  1001   001276  502D               	movf	smerOtaceniPocitadloHran@stav^0,w,c
  1002   001278  6ED9               	movwf	fsr2l,c
  1003   00127A  6ADA               	clrf	fsr2h,c
  1004   00127C  CFDE F02F          	movff	postinc2,??_smerOtaceniPocitadloHran
  1005   001280  CFDD F030          	movff	postdec2,??_smerOtaceniPocitadloHran+1
  1006                           
  1007                           ; Switch on 2 bytes has been partitioned into a top level switch of size 1, and 1 sub-sw
      +                          itches
  1008                           ; Switch size 1, requested type "simple"
  1009                           ; Number of cases is 1, Range of values is 0 to 0
  1010                           ; switch strategies available:
  1011                           ; Name         Instructions Cycles
  1012                           ; simple_byte            4     3 (average)
  1013                           ;	Chosen strategy is simple_byte
  1014   001284  5030               	movf	(??_smerOtaceniPocitadloHran+1)^0,w,c
  1015   001286  0A00               	xorlw	0	; case 0
  1016   001288  B4D8               	btfsc	status,2,c
  1017   00128A  EF49  F009         	goto	l1460
  1018   00128E  EF5C  F009         	goto	l200
  1019   001292                     l1460:
  1020                           
  1021                           ; Switch size 1, requested type "simple"
  1022                           ; Number of cases is 4, Range of values is 0 to 3
  1023                           ; switch strategies available:
  1024                           ; Name         Instructions Cycles
  1025                           ; simple_byte           13     7 (average)
  1026                           ;	Chosen strategy is simple_byte
  1027   001292  502F               	movf	??_smerOtaceniPocitadloHran^0,w,c
  1028   001294  0A00               	xorlw	0	; case 0
  1029   001296  B4D8               	btfsc	status,2,c
  1030   001298  EF03  F008         	goto	l1258
  1031   00129C  0A01               	xorlw	1	; case 1
  1032   00129E  B4D8               	btfsc	status,2,c
  1033   0012A0  EF93  F008         	goto	l1282
  1034   0012A4  0A03               	xorlw	3	; case 2
  1035   0012A6  B4D8               	btfsc	status,2,c
  1036   0012A8  EFD3  F008         	goto	l1294
  1037   0012AC  0A01               	xorlw	1	; case 3
  1038   0012AE  B4D8               	btfsc	status,2,c
  1039   0012B0  EF07  F009         	goto	l1306
  1040   0012B4  EF5C  F009         	goto	l200
  1041   0012B8                     l200:
  1042   0012B8  0012               	return		;funcret
  1043   0012BA                     __end_of_smerOtaceniPocitadloHran:
  1044                           	callstack 0
  1045                           
  1046 ;; *************** function _preambleInitialization *****************
  1047 ;; Defined at:
  1048 ;;		line 16 in file "source/preambleInitialization.c"
  1049 ;; Parameters:    Size  Location     Type
  1050 ;;		None
  1051 ;; Auto vars:     Size  Location     Type
  1052 ;;		None
  1053 ;; Return value:  Size  Location     Type
  1054 ;;                  1    wreg      void 
  1055 ;; Registers used:
  1056 ;;		wreg, status,2
  1057 ;; Tracked objects:
  1058 ;;		On entry : 0/0
  1059 ;;		On exit  : 0/0
  1060 ;;		Unchanged: 0/0
  1061 ;; Data sizes:     COMRAM   BANK0   BANK1   BANK2   BANK3   BANK4   BANK5   BANK6   BANK7   BANK8   BANK9  BANK10  BANK1
      +1  BANK12  BANK13  BANK14  BANK15
  1062 ;;      Params:         0       0       0       0       0       0       0       0       0       0       0       0       
      +0       0       0       0       0
  1063 ;;      Locals:         0       0       0       0       0       0       0       0       0       0       0       0       
      +0       0       0       0       0
  1064 ;;      Temps:          0       0       0       0       0       0       0       0       0       0       0       0       
      +0       0       0       0       0
  1065 ;;      Totals:         0       0       0       0       0       0       0       0       0       0       0       0       
      +0       0       0       0       0
  1066 ;;Total ram usage:        0 bytes
  1067 ;; Hardware stack levels used: 1
  1068 ;; Hardware stack levels required when called: 2
  1069 ;; This function calls:
  1070 ;;		Nothing
  1071 ;; This function is called by:
  1072 ;;		_main
  1073 ;; This function uses a non-reentrant model
  1074 ;;
  1075                           
  1076                           	psect	text2
  1077   0018F0                     __ptext2:
  1078                           	callstack 0
  1079   0018F0                     _preambleInitialization:
  1080                           	callstack 28
  1081   0018F0                     
  1082                           ;source/preambleInitialization.c: 26:     OSCCONbits.SCS = 0;
  1083   0018F0  0EFC               	movlw	-4
  1084   0018F2  16D3               	andwf	211,f,c	;volatile
  1085   0018F4                     
  1086                           ;source/preambleInitialization.c: 28:     OSCTUNEbits.PLLEN = 1;
  1087   0018F4  8C9B               	bsf	155,6,c	;volatile
  1088   0018F6                     
  1089                           ;source/preambleInitialization.c: 31:     RCONbits.IPEN = 1;
  1090   0018F6  8ED0               	bsf	208,7,c	;volatile
  1091                           
  1092                           ;source/preambleInitialization.c: 34:     TRISD = 0x00;
  1093   0018F8  0E00               	movlw	0
  1094   0018FA  6E95               	movwf	149,c	;volatile
  1095   0018FC                     
  1096                           ;source/preambleInitialization.c: 35:     TRISJ = 0xFF;
  1097   0018FC  689A               	setf	154,c	;volatile
  1098                           
  1099                           ;source/preambleInitialization.c: 36:     TRISH = 0x00;
  1100   0018FE  0E00               	movlw	0
  1101   001900  6E99               	movwf	153,c	;volatile
  1102                           
  1103                           ;source/preambleInitialization.c: 37:     TRISF = 0x00;
  1104   001902  0E00               	movlw	0
  1105   001904  6E97               	movwf	151,c	;volatile
  1106   001906                     
  1107                           ;source/preambleInitialization.c: 40:     TRISFbits.RF3 = 1;
  1108   001906  8697               	bsf	151,3,c	;volatile
  1109                           
  1110                           ;source/preambleInitialization.c: 41:     ADCON0 = 11100001;
  1111   001908  0E61               	movlw	97
  1112   00190A  6EC2               	movwf	194,c	;volatile
  1113                           
  1114                           ;source/preambleInitialization.c: 42:     ADCON1 = 10000010;
  1115   00190C  0E8A               	movlw	138
  1116   00190E  6EC1               	movwf	193,c	;volatile
  1117                           
  1118                           ;source/preambleInitialization.c: 43:     PIE1 = ADIE;
  1119   001910  0E00               	movlw	0
  1120   001912  BC9D               	btfsc	3997,6,c	;volatile
  1121   001914  0E01               	movlw	1
  1122   001916  6E9D               	movwf	157,c	;volatile
  1123   001918                     
  1124                           ;source/preambleInitialization.c: 44:     IPR1bits.ADIP = 0;
  1125   001918  9C9F               	bcf	159,6,c	;volatile
  1126   00191A  0012               	return		;funcret
  1127   00191C                     __end_of_preambleInitialization:
  1128                           	callstack 0
  1129                           
  1130 ;; *************** function _filtr *****************
  1131 ;; Defined at:
  1132 ;;		line 18 in file "source/filtr.c"
  1133 ;; Parameters:    Size  Location     Type
  1134 ;;  vstup           1    7[COMRAM] PTR int 
  1135 ;;		 -> B(2), A(2), vstupS4(2), 
  1136 ;;  stav            1    8[COMRAM] PTR int 
  1137 ;;		 -> stav_filtru_B(2), stav_filtru_A(2), stav_tlacitka(2), 
  1138 ;;  vystup          1    9[COMRAM] PTR int 
  1139 ;;		 -> filtrB(2), filtrA(2), filtrS4(2), 
  1140 ;; Auto vars:     Size  Location     Type
  1141 ;;		None
  1142 ;; Return value:  Size  Location     Type
  1143 ;;                  1    wreg      void 
  1144 ;; Registers used:
  1145 ;;		wreg, fsr2l, fsr2h, status,2, status,0
  1146 ;; Tracked objects:
  1147 ;;		On entry : 0/0
  1148 ;;		On exit  : 0/0
  1149 ;;		Unchanged: 0/0
  1150 ;; Data sizes:     COMRAM   BANK0   BANK1   BANK2   BANK3   BANK4   BANK5   BANK6   BANK7   BANK8   BANK9  BANK10  BANK1
      +1  BANK12  BANK13  BANK14  BANK15
  1151 ;;      Params:         3       0       0       0       0       0       0       0       0       0       0       0       
      +0       0       0       0       0
  1152 ;;      Locals:         0       0       0       0       0       0       0       0       0       0       0       0       
      +0       0       0       0       0
  1153 ;;      Temps:          2       0       0       0       0       0       0       0       0       0       0       0       
      +0       0       0       0       0
  1154 ;;      Totals:         5       0       0       0       0       0       0       0       0       0       0       0       
      +0       0       0       0       0
  1155 ;;Total ram usage:        5 bytes
  1156 ;; Hardware stack levels used: 1
  1157 ;; Hardware stack levels required when called: 2
  1158 ;; This function calls:
  1159 ;;		Nothing
  1160 ;; This function is called by:
  1161 ;;		_main
  1162 ;; This function uses a non-reentrant model
  1163 ;;
  1164                           
  1165                           	psect	text3
  1166   0014EE                     __ptext3:
  1167                           	callstack 0
  1168   0014EE                     _filtr:
  1169                           	callstack 28
  1170   0014EE                     
  1171                           ;source/filtr.c: 19:     switch (*stav){
  1172   0014EE  EF15  F00B         	goto	l1224
  1173   0014F2                     l1192:
  1174                           
  1175                           ;source/filtr.c: 21:             if (*vstup == 1){
  1176   0014F2  502B               	movf	filtr@vstup^0,w,c
  1177   0014F4  6ED9               	movwf	fsr2l,c
  1178   0014F6  6ADA               	clrf	fsr2h,c
  1179   0014F8  04DE               	decf	postinc2,w,c
  1180   0014FA  10DE               	iorwf	postinc2,w,c
  1181   0014FC  A4D8               	btfss	status,2,c
  1182   0014FE  EF83  F00A         	goto	u521
  1183   001502  EF85  F00A         	goto	u520
  1184   001506                     u521:
  1185   001506  EF8E  F00A         	goto	l1196
  1186   00150A                     u520:
  1187   00150A                     l1194:
  1188                           
  1189                           ;source/filtr.c: 22:                 *stav = fs1;
  1190   00150A  502C               	movf	filtr@stav^0,w,c
  1191   00150C  6ED9               	movwf	fsr2l,c
  1192   00150E  6ADA               	clrf	fsr2h,c
  1193   001510  0E01               	movlw	1
  1194   001512  6EDE               	movwf	postinc2,c
  1195   001514  0E00               	movlw	0
  1196   001516  6EDD               	movwf	postdec2,c
  1197                           
  1198                           ;source/filtr.c: 23:             }
  1199   001518  EF95  F00A         	goto	l148
  1200   00151C                     l1196:
  1201                           
  1202                           ;source/filtr.c: 25:                 *stav = fs3;
  1203   00151C  502C               	movf	filtr@stav^0,w,c
  1204   00151E  6ED9               	movwf	fsr2l,c
  1205   001520  6ADA               	clrf	fsr2h,c
  1206   001522  0E03               	movlw	3
  1207   001524  6EDE               	movwf	postinc2,c
  1208   001526  0E00               	movlw	0
  1209   001528  6EDD               	movwf	postdec2,c
  1210   00152A                     l148:
  1211                           
  1212                           ;source/filtr.c: 27:             *vystup = 0;
  1213   00152A  502D               	movf	filtr@vystup^0,w,c
  1214   00152C  6ED9               	movwf	fsr2l,c
  1215   00152E  6ADA               	clrf	fsr2h,c
  1216   001530  6ADE               	clrf	postinc2,c
  1217   001532  6ADD               	clrf	postdec2,c
  1218                           
  1219                           ;source/filtr.c: 28:             break;
  1220   001534  EF3A  F00B         	goto	l162
  1221   001538                     l1198:
  1222                           
  1223                           ;source/filtr.c: 32:             if (*vstup == 1){
  1224   001538  502B               	movf	filtr@vstup^0,w,c
  1225   00153A  6ED9               	movwf	fsr2l,c
  1226   00153C  6ADA               	clrf	fsr2h,c
  1227   00153E  04DE               	decf	postinc2,w,c
  1228   001540  10DE               	iorwf	postinc2,w,c
  1229   001542  A4D8               	btfss	status,2,c
  1230   001544  EFA6  F00A         	goto	u531
  1231   001548  EFA8  F00A         	goto	u530
  1232   00154C                     u531:
  1233   00154C  EF8E  F00A         	goto	l1196
  1234   001550                     u530:
  1235   001550                     
  1236                           ;source/filtr.c: 33:                 *stav = fs2;
  1237   001550  502C               	movf	filtr@stav^0,w,c
  1238   001552  6ED9               	movwf	fsr2l,c
  1239   001554  6ADA               	clrf	fsr2h,c
  1240   001556  0E02               	movlw	2
  1241   001558  6EDE               	movwf	postinc2,c
  1242   00155A  0E00               	movlw	0
  1243   00155C  6EDD               	movwf	postdec2,c
  1244                           
  1245                           ;source/filtr.c: 34:             }
  1246   00155E  EF95  F00A         	goto	l148
  1247   001562                     l1204:
  1248                           
  1249                           ;source/filtr.c: 43:             if (*vstup == 1){
  1250   001562  502B               	movf	filtr@vstup^0,w,c
  1251   001564  6ED9               	movwf	fsr2l,c
  1252   001566  6ADA               	clrf	fsr2h,c
  1253   001568  04DE               	decf	postinc2,w,c
  1254   00156A  10DE               	iorwf	postinc2,w,c
  1255   00156C  A4D8               	btfss	status,2,c
  1256   00156E  EFBB  F00A         	goto	u541
  1257   001572  EFBD  F00A         	goto	u540
  1258   001576                     u541:
  1259   001576  EFCD  F00A         	goto	l1208
  1260   00157A                     u540:
  1261   00157A                     
  1262                           ;source/filtr.c: 44:                 *stav = fs2;
  1263   00157A  502C               	movf	filtr@stav^0,w,c
  1264   00157C  6ED9               	movwf	fsr2l,c
  1265   00157E  6ADA               	clrf	fsr2h,c
  1266   001580  0E02               	movlw	2
  1267   001582  6EDE               	movwf	postinc2,c
  1268   001584  0E00               	movlw	0
  1269   001586  6EDD               	movwf	postdec2,c
  1270                           
  1271                           ;source/filtr.c: 45:                 *vystup = 1;
  1272   001588  502D               	movf	filtr@vystup^0,w,c
  1273   00158A  6ED9               	movwf	fsr2l,c
  1274   00158C  6ADA               	clrf	fsr2h,c
  1275   00158E  0E01               	movlw	1
  1276   001590  6EDE               	movwf	postinc2,c
  1277   001592  0E00               	movlw	0
  1278   001594  6EDD               	movwf	postdec2,c
  1279                           
  1280                           ;source/filtr.c: 46:             }
  1281   001596  EF3A  F00B         	goto	l162
  1282   00159A                     l1208:
  1283                           
  1284                           ;source/filtr.c: 48:                 *stav = fs3;
  1285   00159A  502C               	movf	filtr@stav^0,w,c
  1286   00159C  6ED9               	movwf	fsr2l,c
  1287   00159E  6ADA               	clrf	fsr2h,c
  1288   0015A0  0E03               	movlw	3
  1289   0015A2  6EDE               	movwf	postinc2,c
  1290   0015A4  0E00               	movlw	0
  1291   0015A6  6EDD               	movwf	postdec2,c
  1292                           
  1293                           ;source/filtr.c: 49:                 *vystup = 0;
  1294   0015A8  502D               	movf	filtr@vystup^0,w,c
  1295   0015AA  6ED9               	movwf	fsr2l,c
  1296   0015AC  6ADA               	clrf	fsr2h,c
  1297   0015AE  6ADE               	clrf	postinc2,c
  1298   0015B0  6ADD               	clrf	postdec2,c
  1299   0015B2  EF3A  F00B         	goto	l162
  1300   0015B6                     l1210:
  1301                           
  1302                           ;source/filtr.c: 55:             if (*vstup == 1){
  1303   0015B6  502B               	movf	filtr@vstup^0,w,c
  1304   0015B8  6ED9               	movwf	fsr2l,c
  1305   0015BA  6ADA               	clrf	fsr2h,c
  1306   0015BC  04DE               	decf	postinc2,w,c
  1307   0015BE  10DE               	iorwf	postinc2,w,c
  1308   0015C0  A4D8               	btfss	status,2,c
  1309   0015C2  EFE5  F00A         	goto	u551
  1310   0015C6  EFE7  F00A         	goto	u550
  1311   0015CA                     u551:
  1312   0015CA  EFE9  F00A         	goto	l1214
  1313   0015CE                     u550:
  1314   0015CE  EF85  F00A         	goto	l1194
  1315   0015D2                     l1214:
  1316                           
  1317                           ;source/filtr.c: 59:                 *stav = fs4;
  1318   0015D2  502C               	movf	filtr@stav^0,w,c
  1319   0015D4  6ED9               	movwf	fsr2l,c
  1320   0015D6  6ADA               	clrf	fsr2h,c
  1321   0015D8  0E04               	movlw	4
  1322   0015DA  6EDE               	movwf	postinc2,c
  1323   0015DC  0E00               	movlw	0
  1324   0015DE  6EDD               	movwf	postdec2,c
  1325   0015E0  EF95  F00A         	goto	l148
  1326   0015E4                     l1216:
  1327                           
  1328                           ;source/filtr.c: 66:             if (*vstup == 1){
  1329   0015E4  502B               	movf	filtr@vstup^0,w,c
  1330   0015E6  6ED9               	movwf	fsr2l,c
  1331   0015E8  6ADA               	clrf	fsr2h,c
  1332   0015EA  04DE               	decf	postinc2,w,c
  1333   0015EC  10DE               	iorwf	postinc2,w,c
  1334   0015EE  A4D8               	btfss	status,2,c
  1335   0015F0  EFFC  F00A         	goto	u561
  1336   0015F4  EFFE  F00A         	goto	u560
  1337   0015F8                     u561:
  1338   0015F8  EF07  F00B         	goto	l1220
  1339   0015FC                     u560:
  1340   0015FC                     
  1341                           ;source/filtr.c: 67:                 *stav = fs1;
  1342   0015FC  502C               	movf	filtr@stav^0,w,c
  1343   0015FE  6ED9               	movwf	fsr2l,c
  1344   001600  6ADA               	clrf	fsr2h,c
  1345   001602  0E01               	movlw	1
  1346   001604  6EDE               	movwf	postinc2,c
  1347   001606  0E00               	movlw	0
  1348   001608  6EDD               	movwf	postdec2,c
  1349                           
  1350                           ;source/filtr.c: 68:             }
  1351   00160A  EF3A  F00B         	goto	l162
  1352   00160E                     l1220:
  1353                           
  1354                           ;source/filtr.c: 70:                 *stav = fs4;
  1355   00160E  502C               	movf	filtr@stav^0,w,c
  1356   001610  6ED9               	movwf	fsr2l,c
  1357   001612  6ADA               	clrf	fsr2h,c
  1358   001614  0E04               	movlw	4
  1359   001616  6EDE               	movwf	postinc2,c
  1360   001618  0E00               	movlw	0
  1361   00161A  6EDD               	movwf	postdec2,c
  1362                           
  1363                           ;source/filtr.c: 71:                 *vystup = 0;
  1364   00161C  502D               	movf	filtr@vystup^0,w,c
  1365   00161E  6ED9               	movwf	fsr2l,c
  1366   001620  6ADA               	clrf	fsr2h,c
  1367   001622  6ADE               	clrf	postinc2,c
  1368   001624  6ADD               	clrf	postdec2,c
  1369   001626  EF3A  F00B         	goto	l162
  1370   00162A                     l1224:
  1371   00162A  502C               	movf	filtr@stav^0,w,c
  1372   00162C  6ED9               	movwf	fsr2l,c
  1373   00162E  6ADA               	clrf	fsr2h,c
  1374   001630  CFDE F02E          	movff	postinc2,??_filtr
  1375   001634  CFDD F02F          	movff	postdec2,??_filtr+1
  1376                           
  1377                           ; Switch on 2 bytes has been partitioned into a top level switch of size 1, and 1 sub-sw
      +                          itches
  1378                           ; Switch size 1, requested type "simple"
  1379                           ; Number of cases is 1, Range of values is 0 to 0
  1380                           ; switch strategies available:
  1381                           ; Name         Instructions Cycles
  1382                           ; simple_byte            4     3 (average)
  1383                           ;	Chosen strategy is simple_byte
  1384   001638  502F               	movf	(??_filtr+1)^0,w,c
  1385   00163A  0A00               	xorlw	0	; case 0
  1386   00163C  B4D8               	btfsc	status,2,c
  1387   00163E  EF23  F00B         	goto	l1462
  1388   001642  EF3A  F00B         	goto	l162
  1389   001646                     l1462:
  1390                           
  1391                           ; Switch size 1, requested type "simple"
  1392                           ; Number of cases is 5, Range of values is 0 to 4
  1393                           ; switch strategies available:
  1394                           ; Name         Instructions Cycles
  1395                           ; simple_byte           16     9 (average)
  1396                           ;	Chosen strategy is simple_byte
  1397   001646  502E               	movf	??_filtr^0,w,c
  1398   001648  0A00               	xorlw	0	; case 0
  1399   00164A  B4D8               	btfsc	status,2,c
  1400   00164C  EF79  F00A         	goto	l1192
  1401   001650  0A01               	xorlw	1	; case 1
  1402   001652  B4D8               	btfsc	status,2,c
  1403   001654  EF9C  F00A         	goto	l1198
  1404   001658  0A03               	xorlw	3	; case 2
  1405   00165A  B4D8               	btfsc	status,2,c
  1406   00165C  EFB1  F00A         	goto	l1204
  1407   001660  0A01               	xorlw	1	; case 3
  1408   001662  B4D8               	btfsc	status,2,c
  1409   001664  EFDB  F00A         	goto	l1210
  1410   001668  0A07               	xorlw	7	; case 4
  1411   00166A  B4D8               	btfsc	status,2,c
  1412   00166C  EFF2  F00A         	goto	l1216
  1413   001670  EF3A  F00B         	goto	l162
  1414   001674                     l162:
  1415   001674  0012               	return		;funcret
  1416   001676                     __end_of_filtr:
  1417                           	callstack 0
  1418                           
  1419 ;; *************** function _aretace *****************
  1420 ;; Defined at:
  1421 ;;		line 14 in file "source/aretace.c"
  1422 ;; Parameters:    Size  Location     Type
  1423 ;;  vstup           1    7[COMRAM] PTR int 
  1424 ;;		 -> filtrS4(2), 
  1425 ;;  stav            1    8[COMRAM] PTR int 
  1426 ;;		 -> stav_aretace(2), 
  1427 ;;  vystup          1    9[COMRAM] PTR int 
  1428 ;;		 -> zaaretovane_tlacitko(2), 
  1429 ;; Auto vars:     Size  Location     Type
  1430 ;;		None
  1431 ;; Return value:  Size  Location     Type
  1432 ;;                  1    wreg      void 
  1433 ;; Registers used:
  1434 ;;		wreg, fsr2l, fsr2h, status,2, status,0
  1435 ;; Tracked objects:
  1436 ;;		On entry : 0/0
  1437 ;;		On exit  : 0/0
  1438 ;;		Unchanged: 0/0
  1439 ;; Data sizes:     COMRAM   BANK0   BANK1   BANK2   BANK3   BANK4   BANK5   BANK6   BANK7   BANK8   BANK9  BANK10  BANK1
      +1  BANK12  BANK13  BANK14  BANK15
  1440 ;;      Params:         3       0       0       0       0       0       0       0       0       0       0       0       
      +0       0       0       0       0
  1441 ;;      Locals:         0       0       0       0       0       0       0       0       0       0       0       0       
      +0       0       0       0       0
  1442 ;;      Temps:          2       0       0       0       0       0       0       0       0       0       0       0       
      +0       0       0       0       0
  1443 ;;      Totals:         5       0       0       0       0       0       0       0       0       0       0       0       
      +0       0       0       0       0
  1444 ;;Total ram usage:        5 bytes
  1445 ;; Hardware stack levels used: 1
  1446 ;; Hardware stack levels required when called: 2
  1447 ;; This function calls:
  1448 ;;		Nothing
  1449 ;; This function is called by:
  1450 ;;		_main
  1451 ;; This function uses a non-reentrant model
  1452 ;;
  1453                           
  1454                           	psect	text4
  1455   001782                     __ptext4:
  1456                           	callstack 0
  1457   001782                     _aretace:
  1458                           	callstack 28
  1459   001782                     
  1460                           ;source/aretace.c: 15:     switch (*stav){
  1461   001782  EF21  F00C         	goto	l1250
  1462   001786                     l1232:
  1463                           
  1464                           ;source/aretace.c: 17:             if (*vstup == 1){
  1465   001786  502B               	movf	aretace@vstup^0,w,c
  1466   001788  6ED9               	movwf	fsr2l,c
  1467   00178A  6ADA               	clrf	fsr2h,c
  1468   00178C  04DE               	decf	postinc2,w,c
  1469   00178E  10DE               	iorwf	postinc2,w,c
  1470   001790  A4D8               	btfss	status,2,c
  1471   001792  EFCD  F00B         	goto	u571
  1472   001796  EFCF  F00B         	goto	u570
  1473   00179A                     u571:
  1474   00179A  EF42  F00C         	goto	l175
  1475   00179E                     u570:
  1476   00179E                     
  1477                           ;source/aretace.c: 18:                 *stav = as1;
  1478   00179E  502C               	movf	aretace@stav^0,w,c
  1479   0017A0  6ED9               	movwf	fsr2l,c
  1480   0017A2  6ADA               	clrf	fsr2h,c
  1481   0017A4  0E01               	movlw	1
  1482   0017A6  6EDE               	movwf	postinc2,c
  1483   0017A8  0E00               	movlw	0
  1484   0017AA  6EDD               	movwf	postdec2,c
  1485                           
  1486                           ;source/aretace.c: 19:                 *vystup = 1;
  1487   0017AC  502D               	movf	aretace@vystup^0,w,c
  1488   0017AE  6ED9               	movwf	fsr2l,c
  1489   0017B0  6ADA               	clrf	fsr2h,c
  1490   0017B2  0E01               	movlw	1
  1491   0017B4  6EDE               	movwf	postinc2,c
  1492   0017B6  0E00               	movlw	0
  1493   0017B8  6EDD               	movwf	postdec2,c
  1494   0017BA  EF42  F00C         	goto	l175
  1495   0017BE                     l1236:
  1496                           
  1497                           ;source/aretace.c: 25:             if (*vstup == 0){
  1498   0017BE  502B               	movf	aretace@vstup^0,w,c
  1499   0017C0  6ED9               	movwf	fsr2l,c
  1500   0017C2  6ADA               	clrf	fsr2h,c
  1501   0017C4  50DE               	movf	postinc2,w,c
  1502   0017C6  10DE               	iorwf	postinc2,w,c
  1503   0017C8  A4D8               	btfss	status,2,c
  1504   0017CA  EFE9  F00B         	goto	u581
  1505   0017CE  EFEB  F00B         	goto	u580
  1506   0017D2                     u581:
  1507   0017D2  EF42  F00C         	goto	l175
  1508   0017D6                     u580:
  1509   0017D6                     
  1510                           ;source/aretace.c: 26:                 *stav = as2;
  1511   0017D6  502C               	movf	aretace@stav^0,w,c
  1512   0017D8  6ED9               	movwf	fsr2l,c
  1513   0017DA  6ADA               	clrf	fsr2h,c
  1514   0017DC  0E02               	movlw	2
  1515   0017DE  6EDE               	movwf	postinc2,c
  1516   0017E0  0E00               	movlw	0
  1517   0017E2  6EDD               	movwf	postdec2,c
  1518   0017E4  EF42  F00C         	goto	l175
  1519   0017E8                     l1240:
  1520                           
  1521                           ;source/aretace.c: 33:             if (*vstup == 1){
  1522   0017E8  502B               	movf	aretace@vstup^0,w,c
  1523   0017EA  6ED9               	movwf	fsr2l,c
  1524   0017EC  6ADA               	clrf	fsr2h,c
  1525   0017EE  04DE               	decf	postinc2,w,c
  1526   0017F0  10DE               	iorwf	postinc2,w,c
  1527   0017F2  A4D8               	btfss	status,2,c
  1528   0017F4  EFFE  F00B         	goto	u591
  1529   0017F8  EF00  F00C         	goto	u590
  1530   0017FC                     u591:
  1531   0017FC  EF42  F00C         	goto	l175
  1532   001800                     u590:
  1533   001800                     
  1534                           ;source/aretace.c: 34:                 *stav = as3;
  1535   001800  502C               	movf	aretace@stav^0,w,c
  1536   001802  6ED9               	movwf	fsr2l,c
  1537   001804  6ADA               	clrf	fsr2h,c
  1538   001806  0E03               	movlw	3
  1539   001808  6EDE               	movwf	postinc2,c
  1540   00180A  0E00               	movlw	0
  1541   00180C  6EDD               	movwf	postdec2,c
  1542                           
  1543                           ;source/aretace.c: 35:                 *vystup = 0;
  1544   00180E  502D               	movf	aretace@vystup^0,w,c
  1545   001810  6ED9               	movwf	fsr2l,c
  1546   001812  6ADA               	clrf	fsr2h,c
  1547   001814  6ADE               	clrf	postinc2,c
  1548   001816  6ADD               	clrf	postdec2,c
  1549   001818  EF42  F00C         	goto	l175
  1550   00181C                     l1244:
  1551                           
  1552                           ;source/aretace.c: 41:             if (*vstup == 0){
  1553   00181C  502B               	movf	aretace@vstup^0,w,c
  1554   00181E  6ED9               	movwf	fsr2l,c
  1555   001820  6ADA               	clrf	fsr2h,c
  1556   001822  50DE               	movf	postinc2,w,c
  1557   001824  10DE               	iorwf	postinc2,w,c
  1558   001826  A4D8               	btfss	status,2,c
  1559   001828  EF18  F00C         	goto	u601
  1560   00182C  EF1A  F00C         	goto	u600
  1561   001830                     u601:
  1562   001830  EF42  F00C         	goto	l175
  1563   001834                     u600:
  1564   001834                     
  1565                           ;source/aretace.c: 42:                 *stav = as0;
  1566   001834  502C               	movf	aretace@stav^0,w,c
  1567   001836  6ED9               	movwf	fsr2l,c
  1568   001838  6ADA               	clrf	fsr2h,c
  1569   00183A  6ADE               	clrf	postinc2,c
  1570   00183C  6ADD               	clrf	postdec2,c
  1571   00183E  EF42  F00C         	goto	l175
  1572   001842                     l1250:
  1573   001842  502C               	movf	aretace@stav^0,w,c
  1574   001844  6ED9               	movwf	fsr2l,c
  1575   001846  6ADA               	clrf	fsr2h,c
  1576   001848  CFDE F02E          	movff	postinc2,??_aretace
  1577   00184C  CFDD F02F          	movff	postdec2,??_aretace+1
  1578                           
  1579                           ; Switch on 2 bytes has been partitioned into a top level switch of size 1, and 1 sub-sw
      +                          itches
  1580                           ; Switch size 1, requested type "simple"
  1581                           ; Number of cases is 1, Range of values is 0 to 0
  1582                           ; switch strategies available:
  1583                           ; Name         Instructions Cycles
  1584                           ; simple_byte            4     3 (average)
  1585                           ;	Chosen strategy is simple_byte
  1586   001850  502F               	movf	(??_aretace+1)^0,w,c
  1587   001852  0A00               	xorlw	0	; case 0
  1588   001854  B4D8               	btfsc	status,2,c
  1589   001856  EF2F  F00C         	goto	l1464
  1590   00185A  EF42  F00C         	goto	l175
  1591   00185E                     l1464:
  1592                           
  1593                           ; Switch size 1, requested type "simple"
  1594                           ; Number of cases is 4, Range of values is 0 to 3
  1595                           ; switch strategies available:
  1596                           ; Name         Instructions Cycles
  1597                           ; simple_byte           13     7 (average)
  1598                           ;	Chosen strategy is simple_byte
  1599   00185E  502E               	movf	??_aretace^0,w,c
  1600   001860  0A00               	xorlw	0	; case 0
  1601   001862  B4D8               	btfsc	status,2,c
  1602   001864  EFC3  F00B         	goto	l1232
  1603   001868  0A01               	xorlw	1	; case 1
  1604   00186A  B4D8               	btfsc	status,2,c
  1605   00186C  EFDF  F00B         	goto	l1236
  1606   001870  0A03               	xorlw	3	; case 2
  1607   001872  B4D8               	btfsc	status,2,c
  1608   001874  EFF4  F00B         	goto	l1240
  1609   001878  0A01               	xorlw	1	; case 3
  1610   00187A  B4D8               	btfsc	status,2,c
  1611   00187C  EF0E  F00C         	goto	l1244
  1612   001880  EF42  F00C         	goto	l175
  1613   001884                     l175:
  1614   001884  0012               	return		;funcret
  1615   001886                     __end_of_aretace:
  1616                           	callstack 0
  1617                           
  1618 ;; *************** function ___lmul *****************
  1619 ;; Defined at:
  1620 ;;		line 15 in file "/opt/microchip/xc8/v2.45/pic/sources/c99/common/Umul32.c"
  1621 ;; Parameters:    Size  Location     Type
  1622 ;;  multiplier      4    7[COMRAM] unsigned long 
  1623 ;;  multiplicand    4   11[COMRAM] unsigned long 
  1624 ;; Auto vars:     Size  Location     Type
  1625 ;;  product         4   15[COMRAM] unsigned long 
  1626 ;; Return value:  Size  Location     Type
  1627 ;;                  4    7[COMRAM] unsigned long 
  1628 ;; Registers used:
  1629 ;;		wreg, status,2, status,0
  1630 ;; Tracked objects:
  1631 ;;		On entry : 0/0
  1632 ;;		On exit  : 0/0
  1633 ;;		Unchanged: 0/0
  1634 ;; Data sizes:     COMRAM   BANK0   BANK1   BANK2   BANK3   BANK4   BANK5   BANK6   BANK7   BANK8   BANK9  BANK10  BANK1
      +1  BANK12  BANK13  BANK14  BANK15
  1635 ;;      Params:         8       0       0       0       0       0       0       0       0       0       0       0       
      +0       0       0       0       0
  1636 ;;      Locals:         4       0       0       0       0       0       0       0       0       0       0       0       
      +0       0       0       0       0
  1637 ;;      Temps:          0       0       0       0       0       0       0       0       0       0       0       0       
      +0       0       0       0       0
  1638 ;;      Totals:        12       0       0       0       0       0       0       0       0       0       0       0       
      +0       0       0       0       0
  1639 ;;Total ram usage:       12 bytes
  1640 ;; Hardware stack levels used: 1
  1641 ;; Hardware stack levels required when called: 2
  1642 ;; This function calls:
  1643 ;;		Nothing
  1644 ;; This function is called by:
  1645 ;;		_main
  1646 ;; This function uses a non-reentrant model
  1647 ;;
  1648                           
  1649                           	psect	text5
  1650   001886                     __ptext5:
  1651                           	callstack 0
  1652   001886                     ___lmul:
  1653                           	callstack 28
  1654   001886  0E00               	movlw	0
  1655   001888  6E33               	movwf	___lmul@product^0,c
  1656   00188A  0E00               	movlw	0
  1657   00188C  6E34               	movwf	(___lmul@product+1)^0,c
  1658   00188E  0E00               	movlw	0
  1659   001890  6E35               	movwf	(___lmul@product+2)^0,c
  1660   001892  0E00               	movlw	0
  1661   001894  6E36               	movwf	(___lmul@product+3)^0,c
  1662   001896                     l1328:
  1663   001896  A02B               	btfss	___lmul@multiplier^0,0,c
  1664   001898  EF50  F00C         	goto	u791
  1665   00189C  EF52  F00C         	goto	u790
  1666   0018A0                     u791:
  1667   0018A0  EF5A  F00C         	goto	l1332
  1668   0018A4                     u790:
  1669   0018A4  502F               	movf	___lmul@multiplicand^0,w,c
  1670   0018A6  2633               	addwf	___lmul@product^0,f,c
  1671   0018A8  5030               	movf	(___lmul@multiplicand+1)^0,w,c
  1672   0018AA  2234               	addwfc	(___lmul@product+1)^0,f,c
  1673   0018AC  5031               	movf	(___lmul@multiplicand+2)^0,w,c
  1674   0018AE  2235               	addwfc	(___lmul@product+2)^0,f,c
  1675   0018B0  5032               	movf	(___lmul@multiplicand+3)^0,w,c
  1676   0018B2  2236               	addwfc	(___lmul@product+3)^0,f,c
  1677   0018B4                     l1332:
  1678   0018B4  90D8               	bcf	status,0,c
  1679   0018B6  362F               	rlcf	___lmul@multiplicand^0,f,c
  1680   0018B8  3630               	rlcf	(___lmul@multiplicand+1)^0,f,c
  1681   0018BA  3631               	rlcf	(___lmul@multiplicand+2)^0,f,c
  1682   0018BC  3632               	rlcf	(___lmul@multiplicand+3)^0,f,c
  1683   0018BE  90D8               	bcf	status,0,c
  1684   0018C0  322E               	rrcf	(___lmul@multiplier+3)^0,f,c
  1685   0018C2  322D               	rrcf	(___lmul@multiplier+2)^0,f,c
  1686   0018C4  322C               	rrcf	(___lmul@multiplier+1)^0,f,c
  1687   0018C6  322B               	rrcf	___lmul@multiplier^0,f,c
  1688   0018C8  502B               	movf	___lmul@multiplier^0,w,c
  1689   0018CA  102C               	iorwf	(___lmul@multiplier+1)^0,w,c
  1690   0018CC  102D               	iorwf	(___lmul@multiplier+2)^0,w,c
  1691   0018CE  102E               	iorwf	(___lmul@multiplier+3)^0,w,c
  1692   0018D0  A4D8               	btfss	status,2,c
  1693   0018D2  EF6D  F00C         	goto	u801
  1694   0018D6  EF6F  F00C         	goto	u800
  1695   0018DA                     u801:
  1696   0018DA  EF4B  F00C         	goto	l1328
  1697   0018DE                     u800:
  1698   0018DE  C033  F02B         	movff	___lmul@product,?___lmul
  1699   0018E2  C034  F02C         	movff	___lmul@product+1,?___lmul+1
  1700   0018E6  C035  F02D         	movff	___lmul@product+2,?___lmul+2
  1701   0018EA  C036  F02E         	movff	___lmul@product+3,?___lmul+3
  1702   0018EE  0012               	return		;funcret
  1703   0018F0                     __end_of___lmul:
  1704                           	callstack 0
  1705                           
  1706 ;; *************** function ___aldiv *****************
  1707 ;; Defined at:
  1708 ;;		line 7 in file "/opt/microchip/xc8/v2.45/pic/sources/c99/common/aldiv.c"
  1709 ;; Parameters:    Size  Location     Type
  1710 ;;  dividend        4    7[COMRAM] long 
  1711 ;;  divisor         4   11[COMRAM] long 
  1712 ;; Auto vars:     Size  Location     Type
  1713 ;;  quotient        4   17[COMRAM] long 
  1714 ;;  sign            1   16[COMRAM] unsigned char 
  1715 ;;  counter         1   15[COMRAM] unsigned char 
  1716 ;; Return value:  Size  Location     Type
  1717 ;;                  4    7[COMRAM] long 
  1718 ;; Registers used:
  1719 ;;		wreg, status,2, status,0
  1720 ;; Tracked objects:
  1721 ;;		On entry : 0/0
  1722 ;;		On exit  : 0/0
  1723 ;;		Unchanged: 0/0
  1724 ;; Data sizes:     COMRAM   BANK0   BANK1   BANK2   BANK3   BANK4   BANK5   BANK6   BANK7   BANK8   BANK9  BANK10  BANK1
      +1  BANK12  BANK13  BANK14  BANK15
  1725 ;;      Params:         8       0       0       0       0       0       0       0       0       0       0       0       
      +0       0       0       0       0
  1726 ;;      Locals:         6       0       0       0       0       0       0       0       0       0       0       0       
      +0       0       0       0       0
  1727 ;;      Temps:          0       0       0       0       0       0       0       0       0       0       0       0       
      +0       0       0       0       0
  1728 ;;      Totals:        14       0       0       0       0       0       0       0       0       0       0       0       
      +0       0       0       0       0
  1729 ;;Total ram usage:       14 bytes
  1730 ;; Hardware stack levels used: 1
  1731 ;; Hardware stack levels required when called: 2
  1732 ;; This function calls:
  1733 ;;		Nothing
  1734 ;; This function is called by:
  1735 ;;		_main
  1736 ;; This function uses a non-reentrant model
  1737 ;;
  1738                           
  1739                           	psect	text6
  1740   001676                     __ptext6:
  1741                           	callstack 0
  1742   001676                     ___aldiv:
  1743                           	callstack 28
  1744   001676  0E00               	movlw	0
  1745   001678  6E34               	movwf	___aldiv@sign^0,c
  1746   00167A  BE32               	btfsc	(___aldiv@divisor+3)^0,7,c
  1747   00167C  EF44  F00B         	goto	u810
  1748   001680  EF42  F00B         	goto	u811
  1749   001684                     u811:
  1750   001684  EF4E  F00B         	goto	l1344
  1751   001688                     u810:
  1752   001688  1E32               	comf	(___aldiv@divisor+3)^0,f,c
  1753   00168A  1E31               	comf	(___aldiv@divisor+2)^0,f,c
  1754   00168C  1E30               	comf	(___aldiv@divisor+1)^0,f,c
  1755   00168E  6C2F               	negf	___aldiv@divisor^0,c
  1756   001690  0E00               	movlw	0
  1757   001692  2230               	addwfc	(___aldiv@divisor+1)^0,f,c
  1758   001694  2231               	addwfc	(___aldiv@divisor+2)^0,f,c
  1759   001696  2232               	addwfc	(___aldiv@divisor+3)^0,f,c
  1760   001698  0E01               	movlw	1
  1761   00169A  6E34               	movwf	___aldiv@sign^0,c
  1762   00169C                     l1344:
  1763   00169C  BE2E               	btfsc	(___aldiv@dividend+3)^0,7,c
  1764   00169E  EF55  F00B         	goto	u820
  1765   0016A2  EF53  F00B         	goto	u821
  1766   0016A6                     u821:
  1767   0016A6  EF5F  F00B         	goto	l1350
  1768   0016AA                     u820:
  1769   0016AA  1E2E               	comf	(___aldiv@dividend+3)^0,f,c
  1770   0016AC  1E2D               	comf	(___aldiv@dividend+2)^0,f,c
  1771   0016AE  1E2C               	comf	(___aldiv@dividend+1)^0,f,c
  1772   0016B0  6C2B               	negf	___aldiv@dividend^0,c
  1773   0016B2  0E00               	movlw	0
  1774   0016B4  222C               	addwfc	(___aldiv@dividend+1)^0,f,c
  1775   0016B6  222D               	addwfc	(___aldiv@dividend+2)^0,f,c
  1776   0016B8  222E               	addwfc	(___aldiv@dividend+3)^0,f,c
  1777   0016BA  0E01               	movlw	1
  1778   0016BC  1A34               	xorwf	___aldiv@sign^0,f,c
  1779   0016BE                     l1350:
  1780   0016BE  0E00               	movlw	0
  1781   0016C0  6E35               	movwf	___aldiv@quotient^0,c
  1782   0016C2  0E00               	movlw	0
  1783   0016C4  6E36               	movwf	(___aldiv@quotient+1)^0,c
  1784   0016C6  0E00               	movlw	0
  1785   0016C8  6E37               	movwf	(___aldiv@quotient+2)^0,c
  1786   0016CA  0E00               	movlw	0
  1787   0016CC  6E38               	movwf	(___aldiv@quotient+3)^0,c
  1788   0016CE  502F               	movf	___aldiv@divisor^0,w,c
  1789   0016D0  1030               	iorwf	(___aldiv@divisor+1)^0,w,c
  1790   0016D2  1031               	iorwf	(___aldiv@divisor+2)^0,w,c
  1791   0016D4  1032               	iorwf	(___aldiv@divisor+3)^0,w,c
  1792   0016D6  B4D8               	btfsc	status,2,c
  1793   0016D8  EF70  F00B         	goto	u831
  1794   0016DC  EF72  F00B         	goto	u830
  1795   0016E0                     u831:
  1796   0016E0  EFA8  F00B         	goto	l1372
  1797   0016E4                     u830:
  1798   0016E4  0E01               	movlw	1
  1799   0016E6  6E33               	movwf	___aldiv@counter^0,c
  1800   0016E8  EF7C  F00B         	goto	l1358
  1801   0016EC                     l1356:
  1802   0016EC  90D8               	bcf	status,0,c
  1803   0016EE  362F               	rlcf	___aldiv@divisor^0,f,c
  1804   0016F0  3630               	rlcf	(___aldiv@divisor+1)^0,f,c
  1805   0016F2  3631               	rlcf	(___aldiv@divisor+2)^0,f,c
  1806   0016F4  3632               	rlcf	(___aldiv@divisor+3)^0,f,c
  1807   0016F6  2A33               	incf	___aldiv@counter^0,f,c
  1808   0016F8                     l1358:
  1809   0016F8  AE32               	btfss	(___aldiv@divisor+3)^0,7,c
  1810   0016FA  EF81  F00B         	goto	u841
  1811   0016FE  EF83  F00B         	goto	u840
  1812   001702                     u841:
  1813   001702  EF76  F00B         	goto	l1356
  1814   001706                     u840:
  1815   001706                     l1360:
  1816   001706  90D8               	bcf	status,0,c
  1817   001708  3635               	rlcf	___aldiv@quotient^0,f,c
  1818   00170A  3636               	rlcf	(___aldiv@quotient+1)^0,f,c
  1819   00170C  3637               	rlcf	(___aldiv@quotient+2)^0,f,c
  1820   00170E  3638               	rlcf	(___aldiv@quotient+3)^0,f,c
  1821   001710  502F               	movf	___aldiv@divisor^0,w,c
  1822   001712  5C2B               	subwf	___aldiv@dividend^0,w,c
  1823   001714  5030               	movf	(___aldiv@divisor+1)^0,w,c
  1824   001716  582C               	subwfb	(___aldiv@dividend+1)^0,w,c
  1825   001718  5031               	movf	(___aldiv@divisor+2)^0,w,c
  1826   00171A  582D               	subwfb	(___aldiv@dividend+2)^0,w,c
  1827   00171C  5032               	movf	(___aldiv@divisor+3)^0,w,c
  1828   00171E  582E               	subwfb	(___aldiv@dividend+3)^0,w,c
  1829   001720  A0D8               	btfss	status,0,c
  1830   001722  EF95  F00B         	goto	u851
  1831   001726  EF97  F00B         	goto	u850
  1832   00172A                     u851:
  1833   00172A  EFA0  F00B         	goto	l1368
  1834   00172E                     u850:
  1835   00172E  502F               	movf	___aldiv@divisor^0,w,c
  1836   001730  5E2B               	subwf	___aldiv@dividend^0,f,c
  1837   001732  5030               	movf	(___aldiv@divisor+1)^0,w,c
  1838   001734  5A2C               	subwfb	(___aldiv@dividend+1)^0,f,c
  1839   001736  5031               	movf	(___aldiv@divisor+2)^0,w,c
  1840   001738  5A2D               	subwfb	(___aldiv@dividend+2)^0,f,c
  1841   00173A  5032               	movf	(___aldiv@divisor+3)^0,w,c
  1842   00173C  5A2E               	subwfb	(___aldiv@dividend+3)^0,f,c
  1843   00173E  8035               	bsf	___aldiv@quotient^0,0,c
  1844   001740                     l1368:
  1845   001740  90D8               	bcf	status,0,c
  1846   001742  3232               	rrcf	(___aldiv@divisor+3)^0,f,c
  1847   001744  3231               	rrcf	(___aldiv@divisor+2)^0,f,c
  1848   001746  3230               	rrcf	(___aldiv@divisor+1)^0,f,c
  1849   001748  322F               	rrcf	___aldiv@divisor^0,f,c
  1850   00174A  2E33               	decfsz	___aldiv@counter^0,f,c
  1851   00174C  EF83  F00B         	goto	l1360
  1852   001750                     l1372:
  1853   001750  5034               	movf	___aldiv@sign^0,w,c
  1854   001752  B4D8               	btfsc	status,2,c
  1855   001754  EFAE  F00B         	goto	u861
  1856   001758  EFB0  F00B         	goto	u860
  1857   00175C                     u861:
  1858   00175C  EFB8  F00B         	goto	l1376
  1859   001760                     u860:
  1860   001760  1E38               	comf	(___aldiv@quotient+3)^0,f,c
  1861   001762  1E37               	comf	(___aldiv@quotient+2)^0,f,c
  1862   001764  1E36               	comf	(___aldiv@quotient+1)^0,f,c
  1863   001766  6C35               	negf	___aldiv@quotient^0,c
  1864   001768  0E00               	movlw	0
  1865   00176A  2236               	addwfc	(___aldiv@quotient+1)^0,f,c
  1866   00176C  2237               	addwfc	(___aldiv@quotient+2)^0,f,c
  1867   00176E  2238               	addwfc	(___aldiv@quotient+3)^0,f,c
  1868   001770                     l1376:
  1869   001770  C035  F02B         	movff	___aldiv@quotient,?___aldiv
  1870   001774  C036  F02C         	movff	___aldiv@quotient+1,?___aldiv+1
  1871   001778  C037  F02D         	movff	___aldiv@quotient+2,?___aldiv+2
  1872   00177C  C038  F02E         	movff	___aldiv@quotient+3,?___aldiv+3
  1873   001780  0012               	return		;funcret
  1874   001782                     __end_of___aldiv:
  1875                           	callstack 0
  1876                           
  1877 ;; *************** function _low_isr *****************
  1878 ;; Defined at:
  1879 ;;		line 148 in file "source/main.c"
  1880 ;; Parameters:    Size  Location     Type
  1881 ;;		None
  1882 ;; Auto vars:     Size  Location     Type
  1883 ;;		None
  1884 ;; Return value:  Size  Location     Type
  1885 ;;                  1    wreg      void 
  1886 ;; Registers used:
  1887 ;;		wreg, status,2, status,0
  1888 ;; Tracked objects:
  1889 ;;		On entry : 0/0
  1890 ;;		On exit  : 0/0
  1891 ;;		Unchanged: 0/0
  1892 ;; Data sizes:     COMRAM   BANK0   BANK1   BANK2   BANK3   BANK4   BANK5   BANK6   BANK7   BANK8   BANK9  BANK10  BANK1
      +1  BANK12  BANK13  BANK14  BANK15
  1893 ;;      Params:         0       0       0       0       0       0       0       0       0       0       0       0       
      +0       0       0       0       0
  1894 ;;      Locals:         0       0       0       0       0       0       0       0       0       0       0       0       
      +0       0       0       0       0
  1895 ;;      Temps:          7       0       0       0       0       0       0       0       0       0       0       0       
      +0       0       0       0       0
  1896 ;;      Totals:         7       0       0       0       0       0       0       0       0       0       0       0       
      +0       0       0       0       0
  1897 ;;Total ram usage:        7 bytes
  1898 ;; Hardware stack levels used: 1
  1899 ;; Hardware stack levels required when called: 1
  1900 ;; This function calls:
  1901 ;;		Nothing
  1902 ;; This function is called by:
  1903 ;;		Interrupt level 1
  1904 ;; This function uses a non-reentrant model
  1905 ;;
  1906                           
  1907                           	psect	intcodelo
  1908   000018                     __pintcodelo:
  1909                           	callstack 0
  1910   000018                     _low_isr:
  1911                           	callstack 28
  1912                           
  1913                           ;incstack = 0
  1914   000018  803A               	bsf	int$flags,0,c	;set compiler interrupt flag (level 1)
  1915   00001A  CFD8 F028          	movff	status,??_low_isr+4
  1916   00001E  CFE8 F029          	movff	wreg,??_low_isr+5
  1917   000022  CFE0 F02A          	movff	bsr,??_low_isr+6
  1918   000026                     
  1919                           ;source/main.c: 149:     if (INTCONbits.TMR0IF == 1){
  1920   000026  A4F2               	btfss	242,2,c	;volatile
  1921   000028  EF18  F000         	goto	i1u48_21
  1922   00002C  EF1A  F000         	goto	i1u48_20
  1923   000030                     i1u48_21:
  1924   000030  EF46  F000         	goto	i1l1162
  1925   000034                     i1u48_20:
  1926   000034                     
  1927                           ;source/main.c: 150:         TMR0H = 0xD8;
  1928   000034  0ED8               	movlw	216
  1929   000036  6ED7               	movwf	215,c	;volatile
  1930                           
  1931                           ;source/main.c: 151:         TMR0L = 0xEF;
  1932   000038  0EEF               	movlw	239
  1933   00003A  6ED6               	movwf	214,c	;volatile
  1934   00003C                     
  1935                           ;source/main.c: 152:         INTCONbits.TMR0IF = 0;
  1936   00003C  94F2               	bcf	242,2,c	;volatile
  1937   00003E                     
  1938                           ;source/main.c: 154:         if (citac_ms < 10){
  1939   00003E  BE08               	btfsc	(_citac_ms+1)^0,7,c
  1940   000040  EF2D  F000         	goto	i1u49_20
  1941   000044  5008               	movf	(_citac_ms+1)^0,w,c
  1942   000046  E107               	bnz	i1u49_21
  1943   000048  0E0A               	movlw	10
  1944   00004A  5C07               	subwf	_citac_ms^0,w,c
  1945   00004C  B0D8               	btfsc	status,0,c
  1946   00004E  EF2B  F000         	goto	i1u49_21
  1947   000052  EF2D  F000         	goto	i1u49_20
  1948   000056                     i1u49_21:
  1949   000056  EF35  F000         	goto	i1l1156
  1950   00005A                     i1u49_20:
  1951   00005A                     
  1952                           ;source/main.c: 155:             citac_ms = citac_ms + 1;
  1953   00005A  0E01               	movlw	1
  1954   00005C  2407               	addwf	_citac_ms^0,w,c
  1955   00005E  6E07               	movwf	_citac_ms^0,c
  1956   000060  0E00               	movlw	0
  1957   000062  2008               	addwfc	(_citac_ms+1)^0,w,c
  1958   000064  6E08               	movwf	(_citac_ms+1)^0,c
  1959                           
  1960                           ;source/main.c: 156:         }
  1961   000066  EF44  F000         	goto	i1l102
  1962   00006A                     i1l1156:
  1963   00006A  0E0A               	movlw	10
  1964   00006C  1807               	xorwf	_citac_ms^0,w,c
  1965   00006E  1008               	iorwf	(_citac_ms+1)^0,w,c
  1966   000070  A4D8               	btfss	status,2,c
  1967   000072  EF3D  F000         	goto	i1u50_21
  1968   000076  EF3F  F000         	goto	i1u50_20
  1969   00007A                     i1u50_21:
  1970   00007A  EF44  F000         	goto	i1l102
  1971   00007E                     i1u50_20:
  1972   00007E                     
  1973                           ;source/main.c: 158:             ADCON0bits.GO = 1;
  1974   00007E  82C2               	bsf	194,1,c	;volatile
  1975   000080                     
  1976                           ;source/main.c: 159:             citac_ms = 0;
  1977   000080  0E00               	movlw	0
  1978   000082  6E08               	movwf	(_citac_ms+1)^0,c
  1979   000084  0E00               	movlw	0
  1980   000086  6E07               	movwf	_citac_ms^0,c
  1981   000088                     i1l102:
  1982                           
  1983                           ;source/main.c: 161:         casove_preruseni = 1;
  1984   000088  0E01               	movlw	1
  1985   00008A  6E09               	movwf	_casove_preruseni^0,c
  1986   00008C                     i1l1162:
  1987                           
  1988                           ;source/main.c: 164:     if (PIR1bits.ADIF == 1){
  1989   00008C  AC9E               	btfss	158,6,c	;volatile
  1990   00008E  EF4B  F000         	goto	i1u51_21
  1991   000092  EF4D  F000         	goto	i1u51_20
  1992   000096                     i1u51_21:
  1993   000096  EF72  F000         	goto	i1l105
  1994   00009A                     i1u51_20:
  1995   00009A                     
  1996                           ;source/main.c: 168:         ADprevod = ADRESH;
  1997   00009A  50C4               	movf	196,w,c	;volatile
  1998   00009C  6E01               	movwf	_ADprevod^0,c
  1999   00009E  6A02               	clrf	(_ADprevod+1)^0,c
  2000   0000A0  6A03               	clrf	(_ADprevod+2)^0,c
  2001   0000A2  6A04               	clrf	(_ADprevod+3)^0,c
  2002   0000A4                     
  2003                           ;source/main.c: 169:         ADprevod = ADprevod << 8;
  2004   0000A4  C001  F025         	movff	_ADprevod,??_low_isr+1
  2005   0000A8  C002  F026         	movff	_ADprevod+1,??_low_isr+2
  2006   0000AC  C003  F027         	movff	_ADprevod+2,??_low_isr+3
  2007   0000B0  6A24               	clrf	??_low_isr^0,c
  2008   0000B2  C024  F001         	movff	??_low_isr,_ADprevod
  2009   0000B6  C025  F002         	movff	??_low_isr+1,_ADprevod+1
  2010   0000BA  C026  F003         	movff	??_low_isr+2,_ADprevod+2
  2011   0000BE  C027  F004         	movff	??_low_isr+3,_ADprevod+3
  2012   0000C2                     
  2013                           ;source/main.c: 170:         ADprevod = ADRESL + ADprevod;
  2014   0000C2  50C3               	movf	195,w,c	;volatile
  2015   0000C4  2401               	addwf	_ADprevod^0,w,c
  2016   0000C6  6E01               	movwf	_ADprevod^0,c
  2017   0000C8  0E00               	movlw	0
  2018   0000CA  2002               	addwfc	(_ADprevod+1)^0,w,c
  2019   0000CC  6E02               	movwf	(_ADprevod+1)^0,c
  2020   0000CE  0E00               	movlw	0
  2021   0000D0  2003               	addwfc	(_ADprevod+2)^0,w,c
  2022   0000D2  6E03               	movwf	(_ADprevod+2)^0,c
  2023   0000D4  0E00               	movlw	0
  2024   0000D6  2004               	addwfc	(_ADprevod+3)^0,w,c
  2025   0000D8  6E04               	movwf	(_ADprevod+3)^0,c
  2026   0000DA                     
  2027                           ;source/main.c: 171:         PIR1bits.ADIF = 0;
  2028   0000DA  9C9E               	bcf	158,6,c	;volatile
  2029   0000DC                     
  2030                           ;source/main.c: 172:         ADhotovo = 1;
  2031   0000DC  0E00               	movlw	0
  2032   0000DE  6E06               	movwf	(_ADhotovo+1)^0,c
  2033   0000E0  0E01               	movlw	1
  2034   0000E2  6E05               	movwf	_ADhotovo^0,c
  2035   0000E4                     i1l105:
  2036   0000E4  C02A  FFE0         	movff	??_low_isr+6,bsr
  2037   0000E8  C029  FFE8         	movff	??_low_isr+5,wreg
  2038   0000EC  C028  FFD8         	movff	??_low_isr+4,status
  2039   0000F0  903A               	bcf	int$flags,0,c	;clear compiler interrupt flag (level 1)
  2040   0000F2  0010               	retfie	
  2041   0000F4                     __end_of_low_isr:
  2042                           	callstack 0
  2043                           
  2044 ;; *************** function _high_isr *****************
  2045 ;; Defined at:
  2046 ;;		line 142 in file "source/main.c"
  2047 ;; Parameters:    Size  Location     Type
  2048 ;;		None
  2049 ;; Auto vars:     Size  Location     Type
  2050 ;;		None
  2051 ;; Return value:  Size  Location     Type
  2052 ;;                  1    wreg      void 
  2053 ;; Registers used:
  2054 ;;		None
  2055 ;; Tracked objects:
  2056 ;;		On entry : 0/0
  2057 ;;		On exit  : 0/0
  2058 ;;		Unchanged: 0/0
  2059 ;; Data sizes:     COMRAM   BANK0   BANK1   BANK2   BANK3   BANK4   BANK5   BANK6   BANK7   BANK8   BANK9  BANK10  BANK1
      +1  BANK12  BANK13  BANK14  BANK15
  2060 ;;      Params:         0       0       0       0       0       0       0       0       0       0       0       0       
      +0       0       0       0       0
  2061 ;;      Locals:         0       0       0       0       0       0       0       0       0       0       0       0       
      +0       0       0       0       0
  2062 ;;      Temps:          0       0       0       0       0       0       0       0       0       0       0       0       
      +0       0       0       0       0
  2063 ;;      Totals:         0       0       0       0       0       0       0       0       0       0       0       0       
      +0       0       0       0       0
  2064 ;;Total ram usage:        0 bytes
  2065 ;; Hardware stack levels used: 1
  2066 ;; This function calls:
  2067 ;;		Nothing
  2068 ;; This function is called by:
  2069 ;;		Interrupt level 2
  2070 ;; This function uses a non-reentrant model
  2071 ;;
  2072                           
  2073                           	psect	intcode
  2074   000008                     __pintcode:
  2075                           	callstack 0
  2076   000008                     _high_isr:
  2077                           	callstack 28
  2078                           
  2079                           ;incstack = 0
  2080   000008  823A               	bsf	int$flags,1,c	;set compiler interrupt flag (level 2)
  2081   00000A  EF99  F00C         	goto	int_func
  2082                           
  2083                           	psect	intcode_body
  2084   001932                     __pintcode_body:
  2085                           	callstack 28
  2086   001932                     int_func:
  2087                           	callstack 28
  2088   001932  923A               	bcf	int$flags,1,c	;clear compiler interrupt flag (level 2)
  2089   001934  0011               	retfie		f
  2090   001936                     __end_of_high_isr:
  2091                           	callstack 0
  2092                           
  2093                           	psect	smallconst
  2094   001000                     __psmallconst:
  2095                           	callstack 0
  2096   001000  00                 	db	0
  2097   001001  00                 	db	0	; dummy byte at the end
  2098   000000                     
  2099                           	psect	rparam
  2100   000000                     
  2101                           	psect	temp
  2102   00003A                     btemp:
  2103                           	callstack 0
  2104   00003A                     	ds	1
  2105   000000                     int$flags	set	btemp
  2106   000000                     wtemp8	set	btemp+1
  2107   000000                     ttemp5	set	btemp+1
  2108   000000                     ttemp6	set	btemp+4
  2109   000000                     ttemp7	set	btemp+8
  2110                           
  2111                           	psect	config
  2112                           
  2113                           ;Config register CONFIG1L @ 0x1FFF8
  2114                           ;	Watchdog Timer Enable bit
  2115                           ;	WDTEN = OFF, WDT disabled (control is placed on SWDTEN bit)
  2116                           ;	Stack Overflow/Underflow Reset Enable bit
  2117                           ;	STVREN = ON, Reset on stack overflow/underflow enabled
  2118                           ;	Extended Instruction Set Enable bit
  2119                           ;	XINST = OFF, Instruction set extension and Indexed Addressing mode disabled (Legacy mo
      +                          de)
  2120                           ;	Background Debugger Enable bit
  2121                           ;	DEBUG = 0x1, unprogrammed default
  2122   01FFF8                     	org	131064
  2123   01FFF8  A0                 	db	160
  2124                           
  2125                           ;Config register CONFIG1H @ 0x1FFF9
  2126                           ;	Code Protection bit
  2127                           ;	CP0 = OFF, Program memory is not code-protected
  2128   01FFF9                     	org	131065
  2129   01FFF9  F4                 	db	244
  2130                           
  2131                           ;Config register CONFIG2L @ 0x1FFFA
  2132                           ;	Oscillator Selection bits
  2133                           ;	FOSC = HSPLL, HS oscillator, PLL enabled
  2134                           ;	Fail-Safe Clock Monitor Enable bit
  2135                           ;	FCMEN = OFF, Fail-Safe Clock Monitor disabled
  2136                           ;	Two-Speed Start-up (Internal/External Oscillator Switchover) Control bit
  2137                           ;	IESO = OFF, Two-Speed Start-up disabled
  2138   01FFFA                     	org	131066
  2139   01FFFA  05                 	db	5
  2140                           
  2141                           ;Config register CONFIG2H @ 0x1FFFB
  2142                           ;	Watchdog Timer Postscaler Select bits
  2143                           ;	WDTPS = 32768, 1:32768
  2144   01FFFB                     	org	131067
  2145   01FFFB  FF                 	db	255
  2146                           
  2147                           ;Config register CONFIG3L @ 0x1FFFC
  2148                           ;	External Address Bus Shift Enable bit
  2149                           ;	EASHFT = 0x1, unprogrammed default
  2150                           ;	External Memory Bus Configuration bits
  2151                           ;	MODE = MM, Microcontroller mode - External bus disabled
  2152                           ;	Data Bus Width Select bit
  2153                           ;	BW = 0x1, unprogrammed default
  2154                           ;	External Bus Wait Enable bit
  2155                           ;	WAIT = 0x1, unprogrammed default
  2156   01FFFC                     	org	131068
  2157   01FFFC  F8                 	db	248
  2158                           
  2159                           ;Config register CONFIG3H @ 0x1FFFD
  2160                           ;	unspecified, using default values
  2161                           ;	ECCP2 MUX bit
  2162                           ;	CCP2MX = 0x1, unprogrammed default
  2163                           ;	ECCPx MUX bit
  2164                           ;	ECCPMX = 0x1, unprogrammed default
  2165                           ;	PMP Pin Multiplex bit
  2166                           ;	PMPMX = 0x1, unprogrammed default
  2167                           ;	MSSP Address Masking Mode Select bit
  2168                           ;	MSSPMSK = 0x1, unprogrammed default
  2169   01FFFD                     	org	131069
  2170   01FFFD  FF                 	db	255
  2171                           tosu	equ	0xFFF
  2172                           tosh	equ	0xFFE
  2173                           tosl	equ	0xFFD
  2174                           stkptr	equ	0xFFC
  2175                           pclatu	equ	0xFFB
  2176                           pclath	equ	0xFFA
  2177                           pcl	equ	0xFF9
  2178                           tblptru	equ	0xFF8
  2179                           tblptrh	equ	0xFF7
  2180                           tblptrl	equ	0xFF6
  2181                           tablat	equ	0xFF5
  2182                           prodh	equ	0xFF4
  2183                           prodl	equ	0xFF3
  2184                           indf0	equ	0xFEF
  2185                           postinc0	equ	0xFEE
  2186                           postdec0	equ	0xFED
  2187                           preinc0	equ	0xFEC
  2188                           plusw0	equ	0xFEB
  2189                           fsr0h	equ	0xFEA
  2190                           fsr0l	equ	0xFE9
  2191                           wreg	equ	0xFE8
  2192                           indf1	equ	0xFE7
  2193                           postinc1	equ	0xFE6
  2194                           postdec1	equ	0xFE5
  2195                           preinc1	equ	0xFE4
  2196                           plusw1	equ	0xFE3
  2197                           fsr1h	equ	0xFE2
  2198                           fsr1l	equ	0xFE1
  2199                           bsr	equ	0xFE0
  2200                           indf2	equ	0xFDF
  2201                           postinc2	equ	0xFDE
  2202                           postdec2	equ	0xFDD
  2203                           preinc2	equ	0xFDC
  2204                           plusw2	equ	0xFDB
  2205                           fsr2h	equ	0xFDA
  2206                           fsr2l	equ	0xFD9
  2207                           status	equ	0xFD8

Data Sizes:
    Strings     0
    Constant    0
    Data        0
    BSS         35
    Persistent  0
    Stack       0

Auto Spaces:
    Space          Size  Autos    Used
    COMRAM           94     22      57
    BANK0           160      0       0
    BANK1           256      0       0
    BANK2           256      0       0
    BANK3           256      0       0
    BANK4           256      0       0
    BANK5           256      0       0
    BANK6           256      0       0
    BANK7           256      0       0
    BANK8           256      0       0
    BANK9           256      0       0
    BANK10          256      0       0
    BANK11          256      0       0
    BANK12          256      0       0
    BANK13          256      0       0
    BANK14          256      0       0
    BANK15           64      0       0

Pointer List with Targets:

    aretace@stav	PTR int  size(1) Largest target is 2
		 -> stav_aretace(COMRAM[2]), 

    aretace@vstup	PTR int  size(1) Largest target is 2
		 -> filtrS4(COMRAM[2]), 

    aretace@vystup	PTR int  size(1) Largest target is 2
		 -> zaaretovane_tlacitko(COMRAM[2]), 

    filtr@stav	PTR int  size(1) Largest target is 2
		 -> stav_filtru_A(COMRAM[2]), stav_filtru_B(COMRAM[2]), stav_tlacitka(COMRAM[2]), 

    filtr@vstup	PTR int  size(1) Largest target is 2
		 -> A(COMRAM[2]), B(COMRAM[2]), vstupS4(COMRAM[2]), 

    filtr@vystup	PTR int  size(1) Largest target is 2
		 -> filtrA(COMRAM[2]), filtrB(COMRAM[2]), filtrS4(COMRAM[2]), 

    smerOtaceniPocitadloHran@A	PTR int  size(1) Largest target is 2
		 -> filtrA(COMRAM[2]), 

    smerOtaceniPocitadloHran@B	PTR int  size(1) Largest target is 2
		 -> filtrB(COMRAM[2]), 

    smerOtaceniPocitadloHran@pocet	PTR int  size(1) Largest target is 2
		 -> pocet(COMRAM[2]), 

    smerOtaceniPocitadloHran@stav	PTR int  size(1) Largest target is 2
		 -> stav_koderu(COMRAM[2]), 


Critical Paths under _main in COMRAM

    _main->___aldiv

Critical Paths under _low_isr in COMRAM

    None.

Critical Paths under _high_isr in COMRAM

    None.

Critical Paths under _main in BANK0

    None.

Critical Paths under _low_isr in BANK0

    None.

Critical Paths under _high_isr in BANK0

    None.

Critical Paths under _main in BANK1

    None.

Critical Paths under _low_isr in BANK1

    None.

Critical Paths under _high_isr in BANK1

    None.

Critical Paths under _main in BANK2

    None.

Critical Paths under _low_isr in BANK2

    None.

Critical Paths under _high_isr in BANK2

    None.

Critical Paths under _main in BANK3

    None.

Critical Paths under _low_isr in BANK3

    None.

Critical Paths under _high_isr in BANK3

    None.

Critical Paths under _main in BANK4

    None.

Critical Paths under _low_isr in BANK4

    None.

Critical Paths under _high_isr in BANK4

    None.

Critical Paths under _main in BANK5

    None.

Critical Paths under _low_isr in BANK5

    None.

Critical Paths under _high_isr in BANK5

    None.

Critical Paths under _main in BANK6

    None.

Critical Paths under _low_isr in BANK6

    None.

Critical Paths under _high_isr in BANK6

    None.

Critical Paths under _main in BANK7

    None.

Critical Paths under _low_isr in BANK7

    None.

Critical Paths under _high_isr in BANK7

    None.

Critical Paths under _main in BANK8

    None.

Critical Paths under _low_isr in BANK8

    None.

Critical Paths under _high_isr in BANK8

    None.

Critical Paths under _main in BANK9

    None.

Critical Paths under _low_isr in BANK9

    None.

Critical Paths under _high_isr in BANK9

    None.

Critical Paths under _main in BANK10

    None.

Critical Paths under _low_isr in BANK10

    None.

Critical Paths under _high_isr in BANK10

    None.

Critical Paths under _main in BANK11

    None.

Critical Paths under _low_isr in BANK11

    None.

Critical Paths under _high_isr in BANK11

    None.

Critical Paths under _main in BANK12

    None.

Critical Paths under _low_isr in BANK12

    None.

Critical Paths under _high_isr in BANK12

    None.

Critical Paths under _main in BANK13

    None.

Critical Paths under _low_isr in BANK13

    None.

Critical Paths under _high_isr in BANK13

    None.

Critical Paths under _main in BANK14

    None.

Critical Paths under _low_isr in BANK14

    None.

Critical Paths under _high_isr in BANK14

    None.

Critical Paths under _main in BANK15

    None.

Critical Paths under _low_isr in BANK15

    None.

Critical Paths under _high_isr in BANK15

    None.

Call Graph Tables:

 ---------------------------------------------------------------------------------
 (Depth) Function   	        Calls       Base Space   Used Autos Params    Refs
 ---------------------------------------------------------------------------------
 (0) _main                                                 1     1      0    3490
                                             21 COMRAM     1     1      0
                            ___aldiv
                             ___lmul
                            _aretace
                              _filtr
             _preambleInitialization
           _smerOtaceniPocitadloHran
 ---------------------------------------------------------------------------------
 (1) _smerOtaceniPocitadloHran                             8     4      4    1030
                                              7 COMRAM     8     4      4
 ---------------------------------------------------------------------------------
 (1) _preambleInitialization                               0     0      0       0
 ---------------------------------------------------------------------------------
 (1) _filtr                                                5     2      3    1168
                                              7 COMRAM     5     2      3
 ---------------------------------------------------------------------------------
 (1) _aretace                                              5     2      3     470
                                              7 COMRAM     5     2      3
 ---------------------------------------------------------------------------------
 (1) ___lmul                                              12     4      8     370
                                              7 COMRAM    12     4      8
 ---------------------------------------------------------------------------------
 (1) ___aldiv                                             14     6      8     452
                                              7 COMRAM    14     6      8
 ---------------------------------------------------------------------------------
 Estimated maximum stack depth 1
 ---------------------------------------------------------------------------------
 (Depth) Function   	        Calls       Base Space   Used Autos Params    Refs
 ---------------------------------------------------------------------------------
 (2) _low_isr                                              7     7      0       0
                                              0 COMRAM     7     7      0
 ---------------------------------------------------------------------------------
 Estimated maximum stack depth 2
 ---------------------------------------------------------------------------------
 (Depth) Function   	        Calls       Base Space   Used Autos Params    Refs
 ---------------------------------------------------------------------------------
 (3) _high_isr                                             0     0      0       0
 ---------------------------------------------------------------------------------
 Estimated maximum stack depth 3
 ---------------------------------------------------------------------------------

 Call Graph Graphs:

 _main (ROOT)
   ___aldiv
   ___lmul
   _aretace
   _filtr
   _preambleInitialization
   _smerOtaceniPocitadloHran

 _low_isr (ROOT)

 _high_isr (ROOT)

 Address spaces:
Name               Size   Autos  Total    Cost      Usage
BIGRAM             F3F      0       0      50        0.0%
BITBANK14          100      0       0      33        0.0%
BANK14             100      0       0      34        0.0%
BITBANK13          100      0       0      30        0.0%
BANK13             100      0       0      31        0.0%
BITBANK12          100      0       0      28        0.0%
BANK12             100      0       0      29        0.0%
BITBANK11          100      0       0      26        0.0%
BANK11             100      0       0      27        0.0%
BITBANK10          100      0       0      24        0.0%
BANK10             100      0       0      25        0.0%
BITBANK9           100      0       0      22        0.0%
BANK9              100      0       0      23        0.0%
BITBANK8           100      0       0      20        0.0%
BANK8              100      0       0      21        0.0%
BITBANK7           100      0       0      18        0.0%
BANK7              100      0       0      19        0.0%
BITBANK6           100      0       0      16        0.0%
BANK6              100      0       0      17        0.0%
BITBANK5           100      0       0      14        0.0%
BANK5              100      0       0      15        0.0%
BITBANK4           100      0       0      12        0.0%
BANK4              100      0       0      13        0.0%
BITBANK3           100      0       0      10        0.0%
BANK3              100      0       0      11        0.0%
BITBANK2           100      0       0       8        0.0%
BANK2              100      0       0       9        0.0%
BITBANK1           100      0       0       6        0.0%
BANK1              100      0       0       7        0.0%
BITBANK0            A0      0       0       4        0.0%
BANK0               A0      0       0       5        0.0%
BITCOMRAM           5E      0       0       0        0.0%
COMRAM              5E     16      39       1       60.6%
BITBANK15           40      0       0      35        0.0%
BANK15              40      0       0      36        0.0%
BITBIGSFRlll        29      0       0      49        0.0%
BITBIGSFRlhlh       21      0       0      42        0.0%
BITBIGSFRhhl        19      0       0      38        0.0%
BITBIGSFRhhh         D      0       0      37        0.0%
BITBIGSFRlhllll      C      0       0      46        0.0%
BITBIGSFRlhhhll      B      0       0      41        0.0%
BITBIGSFRlhhhlh      2      0       0      40        0.0%
BITBIGSFRlhlllh      1      0       0      44        0.0%
BITBIGSFRlhlllh      1      0       0      45        0.0%
BITBIGSFRlhllh       1      0       0      43        0.0%
BITBIGSFRlhhhh       1      0       0      39        0.0%
BITBIGSFRllhh        1      0       0      47        0.0%
BITBIGSFRllhl        1      0       0      48        0.0%
BIGSFR               0      0       0     200        0.0%
BITSFR_1             0      0       0     200        0.0%
SFR_1                0      0       0     200        0.0%
BITSFR               0      0       0     200        0.0%
SFR                  0      0       0     200        0.0%
STACK                0      0       0       2        0.0%
NULL                 0      0       0       0        0.0%
ABS                  0      0      39      32        0.0%
DATA                 0      0      39       3        0.0%
CODE                 0      0       0       0        0.0%


Microchip Technology PIC18 Macro Assembler V2.45 build 20230818022343 
Symbol Table                                                                                   Tue Dec 12 01:50:13 2023

                               _A 0018                                 _B 0016                                l82 13E2  
                              bsr 0FE0                       _stav_koderu 0010                               l200 12B8  
                             l214 18DE                               l215 18EE                               l136 191A  
                             l162 1674                               l148 152A                               l175 1884  
                             l282 1780                               l880 18F6                               l882 18FC  
                             l884 1906                               l876 18F0                               l886 1918  
                             l878 18F4                               u600 1834                               u520 150A  
                             u601 1830                               u521 1506                               u530 1550  
                             u610 101E                               u531 154C                               u611 101A  
                             u540 157A                               u700 1198                               u620 1036  
                             u541 1576                               u701 1194                               u621 1032  
                             u550 15CE                               u710 11BE                               u630 104E  
                             u551 15CA                               u711 11BA                               u631 104A  
                             u800 18DE                               u560 15FC                               u720 11D6  
                             u640 10AE                               u801 18DA                               u561 15F8  
                             u721 11D2                               u641 10AA                               u810 1688  
                             u570 179E                               u730 11F2                               u650 10C6  
                             u811 1684                               u571 179A                               u731 11EE  
                             u651 10C2                               u820 16AA                               u580 17D6  
                             u740 120A                               u660 10DE                               u900 1344  
                             u821 16A6                               u581 17D2                               u741 1206  
                             u661 10DA                               u901 133C                               u830 16E4  
                             u590 1800                               u750 1226                               u670 113E  
                             u910 136E                               u831 16E0                               u591 17FC  
                             u751 1222                               u671 113A                               u911 1366  
                             u840 1706                               u760 123E                               u680 1156  
                             u841 1702                               u761 123A                               u681 1152  
                             u850 172E                               u770 125A                               u690 1180  
                             u851 172A                               u771 1256                               u691 117C  
                             u860 1760                               u780 1272                               u940 13C4  
                             u908 1346                               u861 175C                               u781 126E  
                             u941 13C0                               u925 138E                               u790 18A4  
                             u950 13DC                               u926 1390                               u918 1370  
                             u870 12EA                               u791 18A0                               u951 13D8  
                             u935 1398                               u871 12E6                               u960 13F8  
                             u936 139A                               u880 1300                               u961 13F4  
                             u881 12F8                               u970 141A                               u971 1416  
                             u980 144E                               u981 144A                               u895 1330  
                             u896 1332                               u888 1302                      _stav_aretace 001C  
                             wreg 0FE8        ??_smerOtaceniPocitadloHran 002F                              l1200 1550  
                            l1210 15B6                              l1220 160E                              l1204 1562  
                            l1300 11DA                              l1230 1782                              l1214 15D2  
                            l1206 157A                              l1302 11F2                              l1240 17E8  
                            l1232 1786                              l1216 15E4                              l1208 159A  
                            l1224 162A                              l1312 1242                              l1320 1276  
                            l1400 12D8                              l1330 18A4                              l1242 1800  
                            l1234 179E                              l1250 1842                              l1218 15FC  
                            l1314 125A                              l1306 120E                              l1410 1328  
                            l1402 12DA                              l1340 1688                              l1332 18B4  
                            l1244 181C                              l1236 17BE                              l1308 1226  
                            l1260 101E                              l1420 13AE                              l1412 134C  
                            l1404 12EA                              l1350 16BE                              l1342 1698  
                            l1334 18BE                              l1326 1886                              l1246 1834  
                            l1238 17D6                              l1190 14EE                              l1262 1036  
                            l1270 1096                              l1422 13B2                              l1414 135C  
                            l1406 1308                              l1430 13E6                              l1360 1706  
                            l1352 16CE                              l1344 169C                              l1336 1676  
                            l1328 1896                              l1192 14F2                              l1280 1114  
                            l1272 10AE                              l1264 104E                              l1256 1002  
                            l1440 145E                              l1432 13F8                              l1424 13C4  
                            l1416 1386                              l1408 1318                              l1370 174A  
                            l1362 1710                              l1354 16E4                              l1346 16AA  
                            l1338 167A                              l1194 150A                              l1290 1180  
                            l1282 1126                              l1274 10C6                              l1266 1060  
                            l1258 1006                              l1442 1476                              l1434 141A  
                            l1426 13CA                              l1418 1390                              l1364 172E  
                            l1356 16EC                              l1372 1750                              l1348 16BA  
                            l1196 151C                              l1460 1292                              l1292 1198  
                            l1284 113E                              l1276 10DE                              l1268 1084  
                            l1444 14AA                              l1436 142E                              l1428 13DC  
                            l1380 12BA                              l1374 1760                              l1366 173E  
                            l1358 16F8                              l1462 1646                              l1198 1538  
                            l1294 11A6                              l1286 1156                              l1278 10EC  
                            l1446 14DE                              l1438 144E                              l1390 12CC  
                            l1382 12BE                              l1376 1770                              l1368 1740  
                            l1464 185E                              l1296 11BE                              l1288 1168  
                            l1392 12CE                              l1384 12C2                              l1394 12D2  
                            l1386 12C4                              l1396 12D4                              l1388 12C8  
                            l1398 12D6                              _ADIE 7CEE                              _PIE1 0F9D  
                            i2l95 1932                              _main 12BA                              fsr2h 0FDA  
                            fsr2l 0FD9                              btemp 003A                              start 00F4  
                   _stav_filtru_A 000E                     _stav_filtru_B 000C                      ___param_bank 0000  
                     filtr@vystup 002D                   __end_of___aldiv 1782                             ?_main 0024  
                   _stav_tlacitka 001E                             _T0CON 0FD5                             i1l102 0088  
                           i1l105 00E4                             _TMR0H 0FD7                             _TMR0L 0FD6  
                           _PORTH 0F87                             _TRISD 0F95                             _TRISF 0F97  
                           _TRISH 0F99                             _TRISJ 0F9A               ___lmul@multiplicand 002F  
                 __end_of_aretace 1886                             _filtr 14EE                             _pocet 000A  
                 __end_of_low_isr 00F4              _zaaretovane_tlacitko 001A                             ttemp5 003B  
                           ttemp6 003E                             ttemp7 0042                             status 0FD8  
                           wtemp8 003B                   __initialization 191C                      __end_of_main 14EE  
                          ??_main 0039                     __activetblptr 0003                            _ADCON0 0FC2  
                          _ADCON1 0FC1                            ?_filtr 002B                            _ADRESH 0FC4  
                          _ADRESL 0FC3                            i1l1150 003C                            i1l1160 0080  
                          i1l1152 003E                            i1l1170 00DA                            i1l1154 005A  
                          i1l1162 008C                            i1l1146 0026                            i1l1172 00DC  
                          i1l1164 009A                            i1l1156 006A                            i1l1148 0034  
                          i1l1166 00A4                            i1l1158 007E                            i1l1168 00C2  
   smerOtaceniPocitadloHran@pocet 002E                  __end_of_high_isr 1936                            ___lmul 1886  
                       ??___aldiv 0033                            _filtrA 0014                            _filtrB 0012  
          _preambleInitialization 18F0                            clear_0 1922                            isa$std 0001  
                       ??_aretace 002E  __end_of_smerOtaceniPocitadloHran 12BA                      __mediumconst 0000  
                       ??_low_isr 0024                        __accesstop 0060           __end_of__initialization 1928  
                   ___rparam_used 0001                    __pcstackCOMRAM 0024                     __end_of_filtr 1676  
                         ??_filtr 002E                           ?___lmul 002B                    ___lmul@product 0033  
                _casove_preruseni 0009                           _INTCON2 0FF1                           i1u50_20 007E  
                         i1u50_21 007A                           i1u51_20 009A                           i1u51_21 0096  
                         i1u48_20 0034                           i1u48_21 0030                           i1u49_20 005A  
                         i1u49_21 0056                         ?_high_isr 0024                           __Hparam 0000  
       ?_smerOtaceniPocitadloHran 002B                           __Lparam 0000                           ___aldiv 1676  
                    __psmallconst 1000                           __pcinit 191C                           __ramtop 1000  
                         _aretace 1782                           __ptext0 12BA                           __ptext1 1002  
                         __ptext2 18F0                           __ptext3 14EE                           __ptext4 1782  
                         __ptext5 1886                           __ptext6 1676                           _filtrS4 0020  
                       _T0CONbits 0FD5                  ___aldiv@dividend 002B                           _low_isr 0018  
                      ??_high_isr 0024                    __pintcode_body 1932              end_of_initialization 1928  
                         _vstupS4 0022                           int_func 1932           ?_preambleInitialization 0024  
                ___aldiv@quotient 0035                           postdec2 0FDD                           postinc0 0FEE  
                         postinc2 0FDE                         _PORTDbits 0F83                         _PORTFbits 0F85  
                       _PORTJbits 0F88                         _TRISFbits 0F97    __end_of_preambleInitialization 191C  
                      filtr@vstup 002B                    __end_of___lmul 18F0               start_initialization 191C  
                        ??___lmul 0033                       __pbssCOMRAM 0001                         __pintcode 0008  
                        ?___aldiv 002B                       __pintcodelo 0018                          ?_aretace 002B  
                     __smallconst 1000                          ?_low_isr 0024                   ___aldiv@divisor 002F  
                 ___aldiv@counter 0033                          _IPR1bits 0F9F                          _ADhotovo 0005  
                        _ADprevod 0001                          _PIR1bits 0F9E                          _RCONbits 0FD0  
                      _ADCON0bits 0FC2                         filtr@stav 002C                 ___lmul@multiplier 002B  
        _smerOtaceniPocitadloHran 1002                          __Hrparam 0000                          __Lrparam 0000  
    smerOtaceniPocitadloHran@stav 002D                          _citac_ms 0007                          _high_isr 0008  
                        isa$xinst 0000                          int$flags 003A                     aretace@vystup 002D  
                     _OSCTUNEbits 0F9B                        _INTCONbits 0FF2                          intlevel1 0000  
                        intlevel2 0000                        _OSCCONbits 0FD3                      aretace@vstup 002B  
                    ___aldiv@sign 0034                       aretace@stav 002C          ??_preambleInitialization 002B  
       smerOtaceniPocitadloHran@A 002B         smerOtaceniPocitadloHran@B 002C  
